Certificate:
    Data:
        Version: 3 (0x2)
        Serial Number:
            69:52:fe:3a:b8:39:42:65:96:64:d1:68:a9:a8:4a:31:6d:fc:7a:dd
        Signature Algorithm: ecdsa-with-SHA256
        Issuer: C = US, ST = Washington, L = Seattle, O = Elliptic, OU = ECC256K1-SRV, CN = www.wolfssl.com, emailAddress = info@wolfssl.com
        Validity
            Not Before: Sep 22 21:11:50 2025 GMT
            Not After : Sep 20 21:11:50 2035 GMT
        Subject: C = US, ST = Washington, L = Seattle, O = Elliptic, OU = ECC256K1-SRV, CN = www.wolfssl.com, emailAddress = info@wolfssl.com
        Subject Public Key Info:
            Public Key Algorithm: id-ecPublicKey
                Public-Key: (256 bit)
                pub:
                    04:be:77:03:aa:11:fb:83:4f:8a:a6:03:9b:b6:ee:
                    f1:bd:a5:47:d5:50:62:8c:89:b8:63:00:96:94:ac:
                    8f:db:80:53:3f:ec:99:32:fa:d7:37:fc:04:6d:85:
                    5d:d6:1a:89:c4:3a:57:b3:10:6f:c6:e6:c3:cc:5f:
                    e5:d0:aa:fb:80
                ASN1 OID: secp256k1
        X509v3 extensions:
            X509v3 Basic Constraints: 
                CA:FALSE
            Netscape Cert Type: 
                SSL Server
            X509v3 Subject Key Identifier: 
                ED:B3:A9:CC:C8:68:EE:14:02:05:82:E4:A7:8C:43:C2:E0:06:46:3D
            X509v3 Authority Key Identifier: 
                DirName:/C=US/ST=Washington/L=Seattle/O=Elliptic/OU=ECC256K1-SRV/CN=www.wolfssl.com/emailAddress=info@wolfssl.com
                serial:69:52:FE:3A:B8:39:42:65:96:64:D1:68:A9:A8:4A:31:6D:FC:7A:DD
            X509v3 Key Usage: critical
                Digital Signature, Key Encipherment, Key Agreement
            X509v3 Extended Key Usage: 
                TLS Web Server Authentication
    Signature Algorithm: ecdsa-with-SHA256
    Signature Value:
        30:46:02:21:00:eb:e2:ad:c8:45:62:7c:6b:16:1d:bf:49:4f:
        5e:dc:28:10:b8:be:be:63:82:03:38:2b:36:a3:13:f0:1d:98:
        c6:02:21:00:9c:67:fb:3b:ee:b6:c8:4d:53:f4:4d:b2:9e:d3:
        37:c5:dd:37:57:aa:d9:13:a2:6e:d1:44:d8:1b:5f:3e:44:0a
-----BEGIN CERTIFICATE-----
MIIDYjCCAwegAwIBAgIUaVL+Org5QmWWZNFoqahKMW38et0wCgYIKoZIzj0EAwIw
gZkxCzAJBgNVBAYTAlVTMRMwEQYDVQQIDApXYXNoaW5ndG9uMRAwDgYDVQQHDAdT
ZWF0dGxlMREwDwYDVQQKDAhFbGxpcHRpYzEVMBMGA1UECwwMRUNDMjU2SzEtU1JW
MRgwFgYDVQQDDA93d3cud29sZnNzbC5jb20xHzAdBgkqhkiG9w0BCQEWEGluZm9A
d29sZnNzbC5jb20wHhcNMjUwOTIyMjExMTUwWhcNMzUwOTIwMjExMTUwWjCBmTEL
MAkGA1UEBhMCVVMxEzARBgNVBAgMCldhc2hpbmd0b24xEDAOBgNVBAcMB1NlYXR0
bGUxETAPBgNVBAoMCEVsbGlwdGljMRUwEwYDVQQLDAxFQ0MyNTZLMS1TUlYxGDAW
BgNVBAMMD3d3dy53b2xmc3NsLmNvbTEfMB0GCSqGSIb3DQEJARYQaW5mb0B3b2xm
c3NsLmNvbTBWMBAGByqGSM49AgEGBSuBBAAKA0IABL53A6oR+4NPiqYDm7bu8b2l
R9VQYoyJuGMAlpSsj9uAUz/smTL61zf8BG2FXdYaicQ6V7MQb8bmw8xf5dCq+4Cj
ggEsMIIBKDAJBgNVHRMEAjAAMBEGCWCGSAGG+EIBAQQEAwIGQDAdBgNVHQ4EFgQU
7bOpzMho7hQCBYLkp4xDwuAGRj0wgcMGA1UdIwSBuzCBuKGBn6SBnDCBmTELMAkG
A1UEBhMCVVMxEzARBgNVBAgMCldhc2hpbmd0b24xEDAOBgNVBAcMB1NlYXR0bGUx
ETAPBgNVBAoMCEVsbGlwdGljMRUwEwYDVQQLDAxFQ0MyNTZLMS1TUlYxGDAWBgNV
BAMMD3d3dy53b2xmc3NsLmNvbTEfMB0GCSqGSIb3DQEJARYQaW5mb0B3b2xmc3Ns
LmNvbYIUaVL+Org5QmWWZNFoqahKMW38et0wDgYDVR0PAQH/BAQDAgOoMBMGA1Ud
JQQMMAoGCCsGAQUFBwMBMAoGCCqGSM49BAMCA0kAMEYCIQDr4q3IRWJ8axYdv0lP
XtwoELi+vmOCAzgrNqMT8B2YxgIhAJxn+zvutshNU/RNsp7TN8XdN1eq2ROibtFE
2BtfPkQK
-----END CERTIFICATE-----
-----BEGIN CERTIFICATE-----
MIICkDCCAjagAwIBAgIUUc9RpP6v1WEOzZjEtr4Hc5eaRJYwCgYIKoZIzj0EAwIw
gZYxCzAJBgNVBAYTAlVTMRMwEQYDVQQIDApXYXNoaW5ndG9uMRAwDgYDVQQHDAdT
ZWF0dGxlMREwDwYDVQQKDAhFbGxpcHRpYzESMBAGA1UECwwJU0VDUDI1NksxMRgw
FgYDVQQDDA93d3cud29sZnNzbC5jb20xHzAdBgkqhkiG9w0BCQEWEGluZm9Ad29s
ZnNzbC5jb20wHhcNMjQxMjE4MjEyNTI5WhcNNDQxMjEzMjEyNTI5WjCBljELMAkG
A1UEBhMCVVMxEzARBgNVBAgMCldhc2hpbmd0b24xEDAOBgNVBAcMB1NlYXR0bGUx
ETAPBgNVBAoMCEVsbGlwdGljMRIwEAYDVQQLDAlTRUNQMjU2SzExGDAWBgNVBAMM
D3d3dy53b2xmc3NsLmNvbTEfMB0GCSqGSIb3DQEJARYQaW5mb0B3b2xmc3NsLmNv
bTBWMBAGByqGSM49AgEGBSuBBAAKA0IABNE4XtThp8HhrRFvS+ecVo5ya/u9V+zJ
Bw5Yc7aXl1iSjuAoyCPVsGQ0SQ7qMv+A9lpVwgu/4zyUXx1zlBsepdGjYzBhMB0G
A1UdDgQWBBR+afvAUc8tTDDL2NlYc47LZDQJnTAfBgNVHSMEGDAWgBR+afvAUc8t
TDDL2NlYc47LZDQJnTAPBgNVHRMBAf8EBTADAQH/MA4GA1UdDwEB/wQEAwIBhjAK
BggqhkjOPQQDAgNIADBFAiEAhu1XNxXZEXl37/QF+yCSlh0b3mAJIjNLA52OjaFp
XYACIGfazS+mdI9JMZgGhBCgyLwWJ6iSTzwMBh74sz3awCAn
-----END CERTIFICATE-----
