Certificate:
    Data:
        Version: 3 (0x2)
        Serial Number:
            70:74:88:7e:af:7a:93:4a:b4:98:ae:9e:c3:4a:c6:0a:e8:6d:6e:05
        Signature Algorithm: sha256WithRSAEncryption
        Issuer: C = NZ, ST = Waikato, L = Hamilton, O = Blue Leaf Software Ltd, CN = Blue Leaf Software CA
        Validity
            Not Before: Apr 29 17:42:33 2023 GMT
            Not After : May  9 17:42:33 2023 GMT
        Subject: C = NZ, ST = Waikato, L = Hamilton, O = "Blue Leaf Software, Ltd", CN = "Lumos HW, serialNumber = BLS-002"
        Subject Public Key Info:
            Public Key Algorithm: rsaEncryption
                Public-Key: (512 bit)
                Modulus:
                    00:9d:6f:50:d3:79:b1:bf:4a:4b:df:15:88:61:67:
                    ef:de:6d:6c:17:42:c7:40:1c:f1:ea:ef:2f:e2:82:
                    1a:9b:20:58:b9:c8:d0:ea:5c:7a:44:c8:2e:be:ad:
                    99:51:87:ea:13:1a:b6:fc:26:a1:7e:14:67:30:24:
                    3b:4a:f6:0b:8d
                Exponent: 65537 (0x10001)
        X509v3 extensions:
            X509v3 Basic Constraints: 
                CA:FALSE
            X509v3 Extended Key Usage: 
                TLS Web Server Authentication, TLS Web Client Authentication
            X509v3 Certificate Policies: critical
                Policy: 1.3.6.1.4.1.59430.2.1
                Policy: 1.3.6.1.4.1.59430.2.1.1
                Policy: 1.3.6.1.4.1.59430.2.1.2
            X509v3 Subject Key Identifier: 
                1D:0D:39:3D:84:80:39:E2:16:66:04:B6:59:08:24:0A:30:E9:3D:F3
            X509v3 Authority Key Identifier: 
                1C:D0:70:E6:15:83:CD:8E:FB:08:71:37:00:05:95:4C:4E:93:82:6B
    Signature Algorithm: sha256WithRSAEncryption
    Signature Value:
        22:f2:21:af:e2:e7:0e:fd:76:85:41:8c:62:b4:36:b7:1f:15:
        95:d7:4f:a6:a6:e0:3a:7f:52:15:67:98:76:06:77:4e:09:b0:
        c7:18:b1:25:01:f8:30:1e:4e:9f:ae:39:cc:8c:16:25:fc:3a:
        61:20:a1:64:02:1d:1e:7e:a2:2e:de:0f:53:6b:57:d8:27:98:
        01:08:be:c9:e9:e4:e0:7f:bb:7a:46:6a:6d:33:1e:80:75:f3:
        91:36:31:31:90:2e:58:2d:d0:83:62:73:de:c8:6c:10:00:f5:
        36:5e:f5:48:ac:ad:0d:67:e8:13:aa:bf:ab:0a:26:b0:29:7e:
        0e:c2:1f:96:a6:fb:8b:e8:83:6a:27:d2:6b:3f:70:5c:73:c1:
        7d:c8:d9:7a:16:76:90:30:32:9d:c4:94:8b:12:ab:c6:1f:85:
        2c:08:8b:e3:60:1f:d7:c2:1a:40:59:43:09:3d:be:c4:46:7b:
        06:0a:72:ed:36:5d:07:24:de:c2:a7:4e:b1:1d:c6:e6:c6:30:
        5a:85:30:b7:96:ea:72:0d:ad:04:3b:0c:f2:c2:e8:74:59:fc:
        bf:6c:b5:e8:a0:73:d8:e1:5d:d0:75:c0:cc:7b:be:d9:8f:f6:
        49:a5:3b:35:ef:92:6c:ca:4f:5e:a8:f8:7f:ba:c8:44:d2:af:
        c0:d5:f6:69:26:45:42:85:5d:ba:4a:6b:63:18:6a:18:8d:b4:
        d0:0f:77:04:cf:5c:c8:50:81:55:a9:79:7a:f8:6c:26:13:a8:
        47:3c:ed:14:3d:30:ad:96:b9:83:c4:9a:74:1c:b0:ce:74:c3:
        66:26:22:0e:a2:f8:76:c7:0e:54:4f:90:c9:75:42:c5:ce:f1:
        17:f8:9a:d6:51:6e:e5:4d:13:88:8f:77:7a:ea:e7:6e:d6:2a:
        36:71:79:02:94:19:fa:54:25:f2:a8:4b:bb:4e:fd:55:19:20:
        18:4f:8a:91:fe:4f:81:a1:f6:78:77:a9:3b:e9:f9:27:e8:c6:
        4c:66:9c:41:11:e3:62:9a:90:bf:dc:86:a8:6d:3e:59:46:cc:
        61:e4:b0:1b:44:50:c4:8c:59:56:06:47:f3:32:7b:d1:73:f3:
        a4:da:8d:36:3b:42:6a:a6:e6:d2:cd:4b:c4:a8:6e:5c:9b:bc:
        02:e2:0c:d5:c8:33:2a:e7:f1:4a:9c:f1:28:1c:02:85:90:c8:
        3b:d9:e7:f4:03:8e:6d:49:d6:ba:57:7f:cb:cd:ec:d2:98:b5:
        14:fc:95:f9:94:67:a6:69:63:9d:e3:f1:ce:f5:fa:d5:a4:f0:
        89:6a:87:dc:f8:0e:d2:15:f3:a5:24:ec:0a:63:1c:6a:4c:3a:
        c5:3a:7f:2e:43:a5:1a:9a
-----BEGIN CERTIFICATE-----
MIIEYDCCAkigAwIBAgIUcHSIfq96k0q0mK6ew0rGCuhtbgUwDQYJKoZIhvcNAQEL
BQAwczELMAkGA1UEBhMCTloxEDAOBgNVBAgMB1dhaWthdG8xETAPBgNVBAcMCEhh
bWlsdG9uMR8wHQYDVQQKDBZCbHVlIExlYWYgU29mdHdhcmUgTHRkMR4wHAYDVQQD
DBVCbHVlIExlYWYgU29mdHdhcmUgQ0EwHhcNMjMwNDI5MTc0MjMzWhcNMjMwNTA5
MTc0MjMzWjB/MQswCQYDVQQGEwJOWjEQMA4GA1UECAwHV2Fpa2F0bzERMA8GA1UE
BwwISGFtaWx0b24xIDAeBgNVBAoMF0JsdWUgTGVhZiBTb2Z0d2FyZSwgTHRkMSkw
JwYDVQQDDCBMdW1vcyBIVywgc2VyaWFsTnVtYmVyID0gQkxTLTAwMjBcMA0GCSqG
SIb3DQEBAQUAA0sAMEgCQQCdb1DTebG/SkvfFYhhZ+/ebWwXQsdAHPHq7y/ighqb
IFi5yNDqXHpEyC6+rZlRh+oTGrb8JqF+FGcwJDtK9guNAgMBAAGjgacwgaQwCQYD
VR0TBAIwADAdBgNVHSUEFjAUBggrBgEFBQcDAQYIKwYBBQUHAwIwOAYDVR0gAQH/
BC4wLDAMBgorBgEEAYPQJgIBMA0GCysGAQQBg9AmAgEBMA0GCysGAQQBg9AmAgEC
MB0GA1UdDgQWBBQdDTk9hIA54hZmBLZZCCQKMOk98zAfBgNVHSMEGDAWgBQc0HDm
FYPNjvsIcTcABZVMTpOCazANBgkqhkiG9w0BAQsFAAOCAgEAIvIhr+LnDv12hUGM
YrQ2tx8VlddPpqbgOn9SFWeYdgZ3TgmwxxixJQH4MB5On645zIwWJfw6YSChZAId
Hn6iLt4PU2tX2CeYAQi+yenk4H+7ekZqbTMegHXzkTYxMZAuWC3Qg2Jz3shsEAD1
Nl71SKytDWfoE6q/qwomsCl+DsIflqb7i+iDaifSaz9wXHPBfcjZehZ2kDAyncSU
ixKrxh+FLAiL42Af18IaQFlDCT2+xEZ7Bgpy7TZdByTewqdOsR3G5sYwWoUwt5bq
cg2tBDsM8sLodFn8v2y16KBz2OFd0HXAzHu+2Y/2SaU7Ne+SbMpPXqj4f7rIRNKv
wNX2aSZFQoVdukprYxhqGI200A93BM9cyFCBVal5evhsJhOoRzztFD0wrZa5g8Sa
dBywznTDZiYiDqL4dscOVE+QyXVCxc7xF/ia1lFu5U0TiI93eurnbtYqNnF5ApQZ
+lQl8qhLu079VRkgGE+Kkf5PgaH2eHepO+n5J+jGTGacQRHjYpqQv9yGqG0+WUbM
YeSwG0RQxIxZVgZH8zJ70XPzpNqNNjtCaqbm0s1LxKhuXJu8AuIM1cgzKufxSpzx
KBwChZDIO9nn9AOObUnWuld/y83s0pi1FPyV+ZRnpmljnePxzvX61aTwiWqH3PgO
0hXzpSTsCmMcakw6xTp/LkOlGpo=
-----END CERTIFICATE-----
