Certificate:
    Data:
        Version: 3 (0x2)
        Serial Number:
            5f:0a:72:a1:3b:03:8c:68:ab:ac:62:af:0a:a4:2b:9e:ff:89:14:b7
        Signature Algorithm: sha256WithRSAEncryption
        Issuer: C = NZ, ST = Waikato, L = Hamilton, O = Blue Leaf Software Ltd, CN = Blue Leaf Software CA
        Validity
            Not Before: May 11 22:42:47 2023 GMT
            Not After : May 21 22:42:47 2023 GMT
        Subject: C = NZ, ST = Waikato, L = Hamilton, O = "Blue Leaf Software, Ltd", CN = "Lumos HW, SN = BLS-002"
        Subject Public Key Info:
            Public Key Algorithm: rsaEncryption
                Public-Key: (512 bit)
                Modulus:
                    00:bc:5c:d6:f8:b4:59:d2:3a:1f:96:a7:6e:5d:bb:
                    c4:45:df:6c:3c:ff:42:ae:fe:a3:8c:43:10:b6:10:
                    89:9a:23:71:8a:50:e5:77:a5:ae:6d:ce:02:73:b0:
                    d2:b9:73:e1:de:51:06:13:ac:35:8a:6c:48:f9:b4:
                    e7:ed:fb:47:15
                Exponent: 65537 (0x10001)
        X509v3 extensions:
            X509v3 Basic Constraints: 
                CA:FALSE
            X509v3 Extended Key Usage: 
                TLS Web Server Authentication, TLS Web Client Authentication
            X509v3 Certificate Policies: critical
                Policy: 1.3.6.1.4.1.59430.2.1
                Policy: 1.3.6.1.4.1.59430.2.1.1
                Policy: 1.3.6.1.4.1.59430.2.1.2
            X509v3 Subject Key Identifier: 
                B5:6F:02:02:D2:53:A8:DC:FC:B8:AA:7F:B3:34:CB:9B:5E:BF:4C:58
            X509v3 Authority Key Identifier: 
                1C:D0:70:E6:15:83:CD:8E:FB:08:71:37:00:05:95:4C:4E:93:82:6B
    Signature Algorithm: sha256WithRSAEncryption
    Signature Value:
        48:d6:3e:8b:40:8a:0f:d5:0f:51:c4:a4:23:44:3b:33:1a:82:
        0b:49:e0:33:6e:1a:28:07:5f:52:5f:b6:f8:a5:b2:26:60:27:
        6a:63:a7:70:90:69:ac:39:92:a4:0c:22:c2:0a:7b:82:b6:9e:
        2c:40:1d:79:d9:8f:9f:5a:8c:13:85:35:4c:18:ab:fd:81:7b:
        b3:95:54:25:40:c7:da:9a:ea:50:cd:86:5f:0a:07:39:44:6f:
        e3:1b:44:f6:69:d5:8c:cd:57:bf:62:f6:bb:0d:b5:ed:17:c0:
        f6:53:0f:81:d5:bd:5f:0f:08:1d:1d:22:67:75:e5:9f:84:9f:
        93:ec:9f:fe:0b:33:cc:4e:00:27:a1:d8:5d:51:6b:a5:36:95:
        0c:14:9f:8f:71:5e:f5:e4:ba:3a:0a:d7:16:85:6a:eb:a0:73:
        2d:31:b9:3b:e6:34:dc:3b:3b:73:6f:e1:0b:f6:3a:31:aa:02:
        8c:68:2e:0d:74:68:f0:ff:1d:bb:97:8e:0a:a0:c0:65:55:48:
        f8:24:18:d3:06:ec:03:26:a3:10:1c:1a:a4:4d:2d:e9:e6:03:
        9d:67:80:3d:64:df:aa:a8:13:2d:a6:d3:f7:07:64:e5:01:86:
        0c:32:4a:0d:95:c8:b4:55:b6:87:88:1d:8d:c1:6c:f0:de:44:
        83:4f:86:23:ea:87:e1:e3:1e:0a:81:92:67:34:37:a0:b8:ce:
        48:94:6c:3d:f3:e4:32:03:1a:8d:69:21:d3:18:5a:51:25:e7:
        45:12:0f:b2:97:dd:15:e8:bd:62:bb:f7:04:e5:ff:bf:24:97:
        d2:a8:76:33:4a:52:26:bc:cf:26:fa:c8:3e:88:01:e8:c5:f7:
        e6:9c:fa:ec:79:df:9b:b6:fa:25:55:e2:d3:e4:dd:09:b6:e1:
        7c:13:2f:1e:63:87:fe:1c:36:48:d0:52:10:df:20:04:23:d2:
        77:03:29:31:66:2a:9e:6a:dc:12:a4:26:f2:55:11:85:26:b3:
        32:d0:86:9a:4b:06:01:90:c5:c3:ad:f4:c9:3f:ef:b0:94:51:
        33:3f:c2:86:47:30:68:68:09:fc:c5:68:79:a9:b3:c2:e1:99:
        4f:63:b7:a8:d5:0a:02:74:8c:a1:34:57:be:e9:2e:b6:43:3d:
        23:d3:fe:1e:4e:94:73:8a:02:65:59:7f:ad:bd:e7:63:c2:f6:
        03:00:97:20:4a:25:71:ee:bc:cd:25:e6:c3:97:64:bd:aa:46:
        d9:1e:0f:50:2b:9b:7b:a7:4e:6f:3d:d7:5c:c6:98:e0:45:b1:
        65:f0:72:01:a5:e7:a2:46:5e:85:4c:ab:66:b8:62:4b:7f:c8:
        86:cc:05:88:46:da:3a:fc
-----BEGIN CERTIFICATE-----
MIIEVjCCAj6gAwIBAgIUXwpyoTsDjGirrGKvCqQrnv+JFLcwDQYJKoZIhvcNAQEL
BQAwczELMAkGA1UEBhMCTloxEDAOBgNVBAgMB1dhaWthdG8xETAPBgNVBAcMCEhh
bWlsdG9uMR8wHQYDVQQKDBZCbHVlIExlYWYgU29mdHdhcmUgTHRkMR4wHAYDVQQD
DBVCbHVlIExlYWYgU29mdHdhcmUgQ0EwHhcNMjMwNTExMjI0MjQ3WhcNMjMwNTIx
MjI0MjQ3WjB1MQswCQYDVQQGEwJOWjEQMA4GA1UECAwHV2Fpa2F0bzERMA8GA1UE
BwwISGFtaWx0b24xIDAeBgNVBAoMF0JsdWUgTGVhZiBTb2Z0d2FyZSwgTHRkMR8w
HQYDVQQDDBZMdW1vcyBIVywgU04gPSBCTFMtMDAyMFwwDQYJKoZIhvcNAQEBBQAD
SwAwSAJBALxc1vi0WdI6H5anbl27xEXfbDz/Qq7+o4xDELYQiZojcYpQ5Xelrm3O
AnOw0rlz4d5RBhOsNYpsSPm05+37RxUCAwEAAaOBpzCBpDAJBgNVHRMEAjAAMB0G
A1UdJQQWMBQGCCsGAQUFBwMBBggrBgEFBQcDAjA4BgNVHSABAf8ELjAsMAwGCisG
AQQBg9AmAgEwDQYLKwYBBAGD0CYCAQEwDQYLKwYBBAGD0CYCAQIwHQYDVR0OBBYE
FLVvAgLSU6jc/Liqf7M0y5tev0xYMB8GA1UdIwQYMBaAFBzQcOYVg82O+whxNwAF
lUxOk4JrMA0GCSqGSIb3DQEBCwUAA4ICAQBI1j6LQIoP1Q9RxKQjRDszGoILSeAz
bhooB19SX7b4pbImYCdqY6dwkGmsOZKkDCLCCnuCtp4sQB152Y+fWowThTVMGKv9
gXuzlVQlQMfamupQzYZfCgc5RG/jG0T2adWMzVe/Yva7DbXtF8D2Uw+B1b1fDwgd
HSJndeWfhJ+T7J/+CzPMTgAnodhdUWulNpUMFJ+PcV715Lo6CtcWhWrroHMtMbk7
5jTcOztzb+EL9joxqgKMaC4NdGjw/x27l44KoMBlVUj4JBjTBuwDJqMQHBqkTS3p
5gOdZ4A9ZN+qqBMtptP3B2TlAYYMMkoNlci0VbaHiB2NwWzw3kSDT4Yj6ofh4x4K
gZJnNDeguM5IlGw98+QyAxqNaSHTGFpRJedFEg+yl90V6L1iu/cE5f+/JJfSqHYz
SlImvM8m+sg+iAHoxffmnPrsed+btvolVeLT5N0JtuF8Ey8eY4f+HDZI0FIQ3yAE
I9J3AykxZiqeatwSpCbyVRGFJrMy0IaaSwYBkMXDrfTJP++wlFEzP8KGRzBoaAn8
xWh5qbPC4ZlPY7eo1QoCdIyhNFe+6S62Qz0j0/4eTpRzigJlWX+tvedjwvYDAJcg
SiVx7rzNJebDl2S9qkbZHg9QK5t7p05vPddcxpjgRbFl8HIBpeeiRl6FTKtmuGJL
f8iGzAWIRto6/A==
-----END CERTIFICATE-----
