Certificate:
    Data:
        Version: 3 (0x2)
        Serial Number:
            19:ee:a0:ff:44:eb:a9:ec:6c:69:ca:d2:7f:26:05:91:d4:c6:f6:fb
        Signature Algorithm: sha256WithRSAEncryption
        Issuer: C = NZ, ST = Waikato, L = Hamilton, O = Blue Leaf Software Ltd, CN = Blue Leaf Software CA
        Validity
            Not Before: Apr 29 17:51:08 2023 GMT
            Not After : May  9 17:51:08 2023 GMT
        Subject: C = NZ, ST = Waikato, L = Hamilton, O = "Blue Leaf Software, Ltd", CN = "Lumos HW, serialNumber = BLS-002"
        Subject Public Key Info:
            Public Key Algorithm: rsaEncryption
                Public-Key: (512 bit)
                Modulus:
                    00:cc:e9:7d:45:cf:3e:f5:c4:bd:05:bf:12:1a:fa:
                    86:b3:38:a2:79:a3:13:c8:e6:fe:0e:4b:d2:1f:50:
                    7f:67:3f:2a:e1:c2:5e:e4:88:4b:5c:16:6b:ee:5d:
                    84:1e:20:2b:4e:95:6f:97:7d:00:67:35:f6:7f:fa:
                    06:9c:66:71:2f
                Exponent: 65537 (0x10001)
        X509v3 extensions:
            X509v3 Basic Constraints: 
                CA:FALSE
            X509v3 Extended Key Usage: 
                TLS Web Server Authentication, TLS Web Client Authentication
            X509v3 Certificate Policies: critical
                Policy: 1.3.6.1.4.1.59430.2.1
                Policy: 1.3.6.1.4.1.59430.2.1.1
                Policy: 1.3.6.1.4.1.59430.2.1.2
            X509v3 Subject Key Identifier: 
                38:13:DD:AA:36:0B:BD:54:91:F7:85:01:1F:59:C3:90:C2:5B:73:9D
            X509v3 Authority Key Identifier: 
                1C:D0:70:E6:15:83:CD:8E:FB:08:71:37:00:05:95:4C:4E:93:82:6B
    Signature Algorithm: sha256WithRSAEncryption
    Signature Value:
        ac:ee:a8:c1:a3:3d:d3:41:25:f1:f5:51:2f:c0:5a:ce:cb:f9:
        9d:a6:b9:3c:91:4d:17:ce:2f:ce:74:05:0e:99:29:a9:2b:a0:
        cc:0a:c2:72:da:ce:af:50:cd:c1:01:de:d7:90:bf:a9:0a:94:
        3f:d4:f7:9f:c2:31:c5:c6:6e:e4:93:44:4f:1c:22:54:01:36:
        51:6b:5c:2a:b8:a2:9b:1c:e1:de:5c:48:f6:e6:03:37:bd:a4:
        fd:c5:2f:9e:45:eb:44:47:37:1c:af:d3:9f:ec:7f:3f:c4:fc:
        99:31:57:34:ea:ba:fa:67:bc:d9:68:b7:20:74:9d:00:49:57:
        80:e9:71:f0:c3:bc:8e:7d:91:e8:2d:8b:85:c8:42:82:fc:7e:
        93:4d:f6:1c:c6:40:11:21:10:a1:26:dd:65:3d:56:20:2d:df:
        7d:d8:78:65:e8:69:66:52:62:9d:65:a7:a6:c5:49:0d:82:22:
        74:a6:33:21:f0:db:0a:2a:a3:df:78:b3:fd:bf:e2:ea:fb:b1:
        4a:fb:f1:ca:1a:f6:50:c9:96:28:ac:ee:c3:4c:d6:93:a7:1f:
        35:d9:b1:27:ad:98:e2:fb:85:e2:d9:67:85:9a:20:85:26:7f:
        3c:4d:82:19:9b:07:12:90:ec:4a:d9:0d:23:91:60:f8:44:5a:
        5f:c1:85:1f:4e:59:8b:86:09:6d:50:84:97:73:57:af:dd:5b:
        60:1f:90:f2:84:bc:06:b7:c5:f5:01:b1:4b:06:0b:aa:0e:92:
        ae:4d:ff:f3:01:60:73:43:92:a3:99:d4:d2:88:0c:13:64:1d:
        1b:96:55:f1:1c:e0:ef:47:98:f2:28:e0:03:05:f6:d5:e8:cf:
        11:85:7f:71:74:64:a6:ef:35:eb:01:ed:d4:66:53:24:d3:aa:
        4e:a8:fb:39:10:e2:14:0e:56:d2:30:0e:73:5f:02:ae:62:da:
        98:51:96:4a:89:98:89:db:ec:2e:3c:94:09:4a:f6:8d:ad:af:
        1a:bf:62:cc:7a:36:a5:14:1e:5a:f2:33:32:b3:fe:a1:e8:b2:
        80:64:5b:a1:7f:42:d4:92:06:ef:0a:8c:a9:f9:62:6a:bb:e4:
        dc:09:e6:0a:ec:47:fc:ca:5d:2d:bf:b0:da:15:61:8d:e2:cf:
        19:79:46:82:ba:19:3f:df:6e:96:71:87:d4:16:e9:e7:fa:f1:
        29:63:c7:a1:54:bc:38:6d:93:b3:9b:bd:cd:cb:b0:9a:fd:cd:
        f3:7c:65:c5:08:f0:30:47:95:c6:ce:84:9a:b9:8f:5b:a6:33:
        3a:e7:38:0e:b9:5e:4f:8a:0a:f8:6e:f1:02:37:fd:59:f3:f0:
        26:34:9e:e6:59:a9:ae:8b
-----BEGIN CERTIFICATE-----
MIIEYDCCAkigAwIBAgIUGe6g/0TrqexsacrSfyYFkdTG9vswDQYJKoZIhvcNAQEL
BQAwczELMAkGA1UEBhMCTloxEDAOBgNVBAgMB1dhaWthdG8xETAPBgNVBAcMCEhh
bWlsdG9uMR8wHQYDVQQKDBZCbHVlIExlYWYgU29mdHdhcmUgTHRkMR4wHAYDVQQD
DBVCbHVlIExlYWYgU29mdHdhcmUgQ0EwHhcNMjMwNDI5MTc1MTA4WhcNMjMwNTA5
MTc1MTA4WjB/MQswCQYDVQQGEwJOWjEQMA4GA1UECAwHV2Fpa2F0bzERMA8GA1UE
BwwISGFtaWx0b24xIDAeBgNVBAoMF0JsdWUgTGVhZiBTb2Z0d2FyZSwgTHRkMSkw
JwYDVQQDDCBMdW1vcyBIVywgc2VyaWFsTnVtYmVyID0gQkxTLTAwMjBcMA0GCSqG
SIb3DQEBAQUAA0sAMEgCQQDM6X1Fzz71xL0FvxIa+oazOKJ5oxPI5v4OS9IfUH9n
Pyrhwl7kiEtcFmvuXYQeICtOlW+XfQBnNfZ/+gacZnEvAgMBAAGjgacwgaQwCQYD
VR0TBAIwADAdBgNVHSUEFjAUBggrBgEFBQcDAQYIKwYBBQUHAwIwOAYDVR0gAQH/
BC4wLDAMBgorBgEEAYPQJgIBMA0GCysGAQQBg9AmAgEBMA0GCysGAQQBg9AmAgEC
MB0GA1UdDgQWBBQ4E92qNgu9VJH3hQEfWcOQwltznTAfBgNVHSMEGDAWgBQc0HDm
FYPNjvsIcTcABZVMTpOCazANBgkqhkiG9w0BAQsFAAOCAgEArO6owaM900El8fVR
L8Bazsv5naa5PJFNF84vznQFDpkpqSugzArCctrOr1DNwQHe15C/qQqUP9T3n8Ix
xcZu5JNETxwiVAE2UWtcKriimxzh3lxI9uYDN72k/cUvnkXrREc3HK/Tn+x/P8T8
mTFXNOq6+me82Wi3IHSdAElXgOlx8MO8jn2R6C2LhchCgvx+k032HMZAESEQoSbd
ZT1WIC3ffdh4ZehpZlJinWWnpsVJDYIidKYzIfDbCiqj33iz/b/i6vuxSvvxyhr2
UMmWKKzuw0zWk6cfNdmxJ62Y4vuF4tlnhZoghSZ/PE2CGZsHEpDsStkNI5Fg+ERa
X8GFH05Zi4YJbVCEl3NXr91bYB+Q8oS8BrfF9QGxSwYLqg6Srk3/8wFgc0OSo5nU
0ogME2QdG5ZV8Rzg70eY8ijgAwX21ejPEYV/cXRkpu816wHt1GZTJNOqTqj7ORDi
FA5W0jAOc18CrmLamFGWSomYidvsLjyUCUr2ja2vGr9izHo2pRQeWvIzMrP+oeiy
gGRboX9C1JIG7wqMqfliarvk3AnmCuxH/MpdLb+w2hVhjeLPGXlGgroZP99ulnGH
1Bbp5/rxKWPHoVS8OG2Ts5u9zcuwmv3N83xlxQjwMEeVxs6EmrmPW6YzOuc4Drle
T4oK+G7xAjf9WfPwJjSe5lmpros=
-----END CERTIFICATE-----
