Certificate:
    Data:
        Version: 3 (0x2)
        Serial Number:
            6c:3b:85:cd:0a:94:d6:c0:2c:d0:5d:51:94:5f:6b:04:eb:fa:da:59
        Signature Algorithm: sha256WithRSAEncryption
        Issuer: C = NZ, ST = Waikato, L = Hamilton, O = Blue Leaf Software Ltd, CN = Blue Leaf Software CA
        Validity
            Not Before: Apr 20 19:26:40 2023 GMT
            Not After : Apr 30 19:26:40 2023 GMT
        Subject: C = NZ, ST = Waikato, L = Hamilton, O = "Blue Leaf Software, Ltd", CN = "Lumos HW, serialNumber = BLS-002"
        Subject Public Key Info:
            Public Key Algorithm: rsaEncryption
                Public-Key: (2048 bit)
                Modulus:
                    00:b7:08:a4:58:7e:c7:67:5e:68:f7:49:41:73:a4:
                    bf:5e:4a:4e:88:90:17:e5:c5:46:0d:5f:9d:80:2b:
                    e6:bc:49:44:7c:0b:d8:40:21:2d:1e:9e:9a:0f:d9:
                    3a:f7:d9:60:18:4d:71:d9:fc:68:72:b9:9e:6f:23:
                    e0:4b:0e:04:fd:5e:6d:39:13:2f:54:6c:1e:1e:6b:
                    3e:c3:28:18:1e:62:a6:19:cd:31:bb:75:9d:e5:90:
                    5c:3c:ee:d6:a9:e2:39:7c:4c:84:95:22:ab:dd:12:
                    e8:76:97:b7:94:3c:d5:40:37:ac:fa:7a:9f:2b:7b:
                    46:55:e6:96:84:50:33:97:50:61:72:f8:b4:dd:23:
                    40:58:ee:11:6f:61:66:ec:a0:5c:a5:a1:11:f1:b4:
                    e1:c4:6e:d6:10:4b:b0:be:27:68:59:3d:75:b5:13:
                    cc:38:a6:e2:c4:8b:09:f7:68:c8:63:a8:09:3c:cc:
                    16:cb:58:62:72:97:a1:28:0f:67:e2:19:dc:bf:d2:
                    da:28:b9:6c:d5:e0:41:b4:81:45:5b:2a:02:64:d9:
                    09:34:d3:9b:04:43:b6:11:c5:19:86:7c:0f:f2:2a:
                    37:3e:c4:71:f9:16:ba:e4:5d:ab:6c:b1:39:9f:67:
                    ed:9f:e2:97:7c:ab:01:53:b5:da:1d:57:c6:81:5f:
                    2d:d3
                Exponent: 65537 (0x10001)
        X509v3 extensions:
            X509v3 Basic Constraints: 
                CA:FALSE
            X509v3 Extended Key Usage: 
                TLS Web Server Authentication, TLS Web Client Authentication
            X509v3 Certificate Policies: critical
                Policy: 1.3.6.1.4.1.59430.2.1
                Policy: 1.3.6.1.4.1.59430.2.1.1
                Policy: 1.3.6.1.4.1.59430.2.1.2
            X509v3 Subject Key Identifier: 
                93:C3:7E:13:62:58:6F:9B:52:30:FE:38:26:10:EB:79:FF:9C:7D:BB
            X509v3 Authority Key Identifier: 
                1C:D0:70:E6:15:83:CD:8E:FB:08:71:37:00:05:95:4C:4E:93:82:6B
    Signature Algorithm: sha256WithRSAEncryption
    Signature Value:
        23:7e:79:2b:34:55:db:5c:36:35:ae:7d:a4:82:8d:fe:55:77:
        b1:25:f5:06:18:a3:15:28:22:ff:e0:0d:90:d0:d3:1e:d9:04:
        72:6b:63:2a:21:a8:5e:b1:2d:bc:07:f1:e9:82:f3:d2:96:35:
        ee:ec:1f:6b:bc:fd:9b:ec:58:33:f2:cd:e1:94:58:92:5e:e2:
        47:76:46:fe:b7:5a:bb:38:5b:a1:aa:20:14:9f:c4:d0:b3:5c:
        53:ef:73:8c:3d:59:d9:78:db:9b:bb:84:82:bc:41:6f:29:7d:
        e0:86:d9:1d:fc:4e:a8:ed:82:89:f5:8b:79:f0:30:b3:98:03:
        c3:c2:48:85:af:bf:84:27:3c:27:09:f9:b7:e5:1c:4d:d4:be:
        6b:2b:18:9b:9c:f1:63:9a:16:2b:44:4a:6b:ff:18:a7:58:a6:
        a1:6e:62:57:5c:b4:c0:61:f6:9c:09:fe:b6:a1:0a:9a:a1:b9:
        47:5d:64:1a:fb:c1:23:02:62:6d:89:fe:2e:6a:9b:47:3e:70:
        ab:2d:02:85:84:54:c2:56:47:5e:c4:ab:0b:44:22:85:c6:7b:
        0d:c3:82:d3:5d:b5:b7:2b:cd:c4:9f:c2:2a:e9:5b:ab:5b:45:
        c0:d1:70:e6:c3:4f:36:b2:0c:fa:f2:de:fe:40:1b:37:c2:1c:
        d8:dd:25:61:17:6d:8f:9c:28:4c:81:1f:9e:e2:5a:83:a2:28:
        be:8d:bd:e1:4e:4b:68:31:eb:9b:3b:ef:23:05:10:f6:92:73:
        15:63:76:0d:de:51:aa:72:ff:f6:f8:4b:f7:e8:df:14:a7:f9:
        05:99:63:83:e9:49:cf:42:91:43:73:27:d9:7b:b4:15:8a:db:
        11:e6:0a:1c:38:d5:fd:b3:b7:f0:ec:cd:6f:be:c3:98:b2:2f:
        c3:2f:2b:d0:65:d0:fc:59:ad:49:20:1a:4a:8f:8a:e7:f2:d9:
        8f:77:85:82:0e:30:88:84:f0:c6:ce:bf:aa:46:4c:b0:88:31:
        d2:9e:a0:5c:17:03:ce:70:9c:a5:b4:21:da:a2:c9:83:1b:17:
        ea:39:eb:eb:0f:92:68:e2:42:1f:32:dd:33:17:14:b2:aa:24:
        40:b9:d1:cd:af:ff:86:cc:9c:0f:18:f4:90:d9:7a:42:73:6a:
        da:73:e9:7c:a4:b9:3b:f8:b3:b1:7a:57:e0:03:f9:9d:46:b1:
        fc:af:50:02:d7:f0:f3:9d:51:16:5e:7c:4c:1a:f5:fe:ac:e3:
        b4:20:52:73:f4:29:7f:4c:ad:5c:c1:56:9a:de:ae:22:c6:c5:
        9e:cc:5f:10:eb:f5:51:94:ce:9e:c2:cb:3b:e5:96:d4:98:87:
        32:4c:19:8b:57:42:3c:f9
-----BEGIN CERTIFICATE-----
MIIFKDCCAxCgAwIBAgIUbDuFzQqU1sAs0F1RlF9rBOv62lkwDQYJKoZIhvcNAQEL
BQAwczELMAkGA1UEBhMCTloxEDAOBgNVBAgMB1dhaWthdG8xETAPBgNVBAcMCEhh
bWlsdG9uMR8wHQYDVQQKDBZCbHVlIExlYWYgU29mdHdhcmUgTHRkMR4wHAYDVQQD
DBVCbHVlIExlYWYgU29mdHdhcmUgQ0EwHhcNMjMwNDIwMTkyNjQwWhcNMjMwNDMw
MTkyNjQwWjB/MQswCQYDVQQGEwJOWjEQMA4GA1UECAwHV2Fpa2F0bzERMA8GA1UE
BwwISGFtaWx0b24xIDAeBgNVBAoMF0JsdWUgTGVhZiBTb2Z0d2FyZSwgTHRkMSkw
JwYDVQQDDCBMdW1vcyBIVywgc2VyaWFsTnVtYmVyID0gQkxTLTAwMjCCASIwDQYJ
KoZIhvcNAQEBBQADggEPADCCAQoCggEBALcIpFh+x2deaPdJQXOkv15KToiQF+XF
Rg1fnYAr5rxJRHwL2EAhLR6emg/ZOvfZYBhNcdn8aHK5nm8j4EsOBP1ebTkTL1Rs
Hh5rPsMoGB5iphnNMbt1neWQXDzu1qniOXxMhJUiq90S6HaXt5Q81UA3rPp6nyt7
RlXmloRQM5dQYXL4tN0jQFjuEW9hZuygXKWhEfG04cRu1hBLsL4naFk9dbUTzDim
4sSLCfdoyGOoCTzMFstYYnKXoSgPZ+IZ3L/S2ii5bNXgQbSBRVsqAmTZCTTTmwRD
thHFGYZ8D/IqNz7EcfkWuuRdq2yxOZ9n7Z/il3yrAVO12h1XxoFfLdMCAwEAAaOB
pzCBpDAJBgNVHRMEAjAAMB0GA1UdJQQWMBQGCCsGAQUFBwMBBggrBgEFBQcDAjA4
BgNVHSABAf8ELjAsMAwGCisGAQQBg9AmAgEwDQYLKwYBBAGD0CYCAQEwDQYLKwYB
BAGD0CYCAQIwHQYDVR0OBBYEFJPDfhNiWG+bUjD+OCYQ63n/nH27MB8GA1UdIwQY
MBaAFBzQcOYVg82O+whxNwAFlUxOk4JrMA0GCSqGSIb3DQEBCwUAA4ICAQAjfnkr
NFXbXDY1rn2kgo3+VXexJfUGGKMVKCL/4A2Q0NMe2QRya2MqIahesS28B/HpgvPS
ljXu7B9rvP2b7Fgz8s3hlFiSXuJHdkb+t1q7OFuhqiAUn8TQs1xT73OMPVnZeNub
u4SCvEFvKX3ghtkd/E6o7YKJ9Yt58DCzmAPDwkiFr7+EJzwnCfm35RxN1L5rKxib
nPFjmhYrREpr/xinWKahbmJXXLTAYfacCf62oQqaoblHXWQa+8EjAmJtif4uaptH
PnCrLQKFhFTCVkdexKsLRCKFxnsNw4LTXbW3K83En8Iq6VurW0XA0XDmw082sgz6
8t7+QBs3whzY3SVhF22PnChMgR+e4lqDoii+jb3hTktoMeubO+8jBRD2knMVY3YN
3lGqcv/2+Ev36N8Up/kFmWOD6UnPQpFDcyfZe7QVitsR5gocONX9s7fw7M1vvsOY
si/DLyvQZdD8Wa1JIBpKj4rn8tmPd4WCDjCIhPDGzr+qRkywiDHSnqBcFwPOcJyl
tCHaosmDGxfqOevrD5Jo4kIfMt0zFxSyqiRAudHNr/+GzJwPGPSQ2XpCc2rac+l8
pLk7+LOxelfgA/mdRrH8r1AC1/DznVEWXnxMGvX+rOO0IFJz9Cl/TK1cwVaa3q4i
xsWezF8Q6/VRlM6ewss75ZbUmIcyTBmLV0I8+Q==
-----END CERTIFICATE-----
