Certificate:
    Data:
        Version: 3 (0x2)
        Serial Number:
            23:44:1c:f4:d8:ac:04:7e:35:31:b4:d6:52:2d:12:53:a8:e0:5e:ce
        Signature Algorithm: sha256WithRSAEncryption
        Issuer: C = NZ, ST = Waikato, L = Hamilton, O = Blue Leaf Software Ltd, CN = Blue Leaf Software CA
        Validity
            Not Before: May 11 23:06:17 2023 GMT
            Not After : May 21 23:06:17 2023 GMT
        Subject: C = NZ, ST = Waikato, L = Hamilton, O = "Blue Leaf Software, Ltd", CN = "Lumos HW, SN = BLS-002"
        Subject Public Key Info:
            Public Key Algorithm: rsaEncryption
                Public-Key: (512 bit)
                Modulus:
                    00:8e:13:b7:af:f3:94:1d:02:ed:a7:ad:9e:6b:51:
                    a5:97:ac:c5:a1:22:30:91:67:40:32:ba:47:c7:4d:
                    cc:be:99:f7:63:4a:a5:ad:a8:0a:d7:01:ff:88:ad:
                    f9:14:cb:52:db:cf:37:99:86:2f:3f:ee:f0:af:c1:
                    c3:f6:d5:a9:2f
                Exponent: 65537 (0x10001)
        X509v3 extensions:
            X509v3 Basic Constraints: 
                CA:FALSE
            X509v3 Extended Key Usage: 
                TLS Web Server Authentication, TLS Web Client Authentication
            X509v3 Certificate Policies: critical
                Policy: 1.3.6.1.4.1.59430.2.1
                Policy: 1.3.6.1.4.1.59430.2.1.1
                Policy: 1.3.6.1.4.1.59430.2.1.2
            X509v3 Subject Key Identifier: 
                41:F2:B5:8E:2A:A8:53:68:35:21:3D:95:89:23:BE:62:19:F0:18:7A
            X509v3 Authority Key Identifier: 
                1C:D0:70:E6:15:83:CD:8E:FB:08:71:37:00:05:95:4C:4E:93:82:6B
    Signature Algorithm: sha256WithRSAEncryption
    Signature Value:
        01:8c:65:6c:4d:5d:d0:f9:bb:03:96:40:a3:fd:14:63:cc:1a:
        64:27:c3:c9:93:45:96:26:b4:3d:32:84:b5:35:49:7e:22:1c:
        9a:f2:87:c7:08:f9:1b:c5:04:49:e7:0d:6e:95:c9:84:bf:4f:
        dd:42:ec:58:9e:07:71:e9:e0:46:18:80:fd:32:77:a8:1f:c7:
        82:fc:7b:f8:1b:26:96:e8:e1:83:71:ad:05:a4:99:3a:c5:46:
        5f:d6:c8:9a:eb:25:e1:97:fb:7e:f7:41:1b:0f:f9:6e:b7:79:
        5c:9f:87:34:87:ad:04:b3:33:4f:36:cd:48:b1:49:39:71:78:
        69:bb:27:ee:5d:00:29:88:86:15:0a:8c:dd:67:93:31:4e:47:
        e6:17:ea:4d:ff:07:97:f7:ee:cc:34:25:f0:9c:df:95:16:cf:
        b0:49:d6:0a:43:a5:6b:a3:08:3a:8d:99:8a:3b:85:8a:8b:b4:
        85:ab:20:47:b4:82:db:22:63:ba:0e:6b:00:68:28:10:a8:5e:
        54:c1:d9:bf:de:35:bd:f3:22:79:47:dc:c6:4b:c2:49:43:6a:
        cb:1d:32:e3:c8:a2:e5:22:65:a1:8b:07:19:fa:c7:ea:19:5f:
        37:33:76:24:4e:c4:59:01:40:e6:2d:f2:2b:c5:64:75:04:3e:
        3e:1e:10:30:66:17:c2:a9:45:bf:c7:6c:bb:45:aa:d1:50:20:
        a0:ba:b9:0c:3c:58:63:da:f1:c4:30:03:fb:0d:6b:de:ab:67:
        54:b0:0a:6e:3c:a4:46:81:7f:17:6f:a6:7a:16:c2:5b:81:98:
        73:f2:98:6f:38:3e:ea:a2:0b:77:12:d5:61:7e:3f:a7:d0:d5:
        66:9e:6e:a7:21:98:d7:61:e2:10:b2:83:b6:da:39:db:bd:14:
        50:9b:fe:44:18:61:e7:b5:f7:45:c1:71:1d:a3:fe:e0:09:1a:
        19:9f:b3:d1:87:91:d7:ef:3c:63:ca:51:98:91:a5:12:72:ac:
        ab:8d:5f:b7:f8:dd:85:00:82:3b:04:dd:70:16:71:3f:90:6a:
        a7:0f:0e:a2:a1:77:90:f0:b6:05:b9:4f:42:2d:2b:ea:c8:98:
        c5:ce:4a:76:ab:c9:5f:f9:cd:a3:05:8f:d3:5e:73:9f:d3:7f:
        d9:84:71:c7:c2:45:37:5f:ee:2e:1b:66:6f:74:99:7e:66:6d:
        c7:7e:b7:c2:c4:6b:ce:a9:31:97:1c:af:2f:48:4d:37:21:e7:
        ae:9d:f0:e9:3e:df:00:a2:a7:c5:81:21:1b:a9:6f:d6:e8:50:
        ce:19:34:b7:1a:11:8f:19:55:a3:43:f1:b0:29:11:8b:84:ae:
        d3:80:02:d4:99:5a:3f:be
-----BEGIN CERTIFICATE-----
MIIEVjCCAj6gAwIBAgIUI0Qc9NisBH41MbTWUi0SU6jgXs4wDQYJKoZIhvcNAQEL
BQAwczELMAkGA1UEBhMCTloxEDAOBgNVBAgMB1dhaWthdG8xETAPBgNVBAcMCEhh
bWlsdG9uMR8wHQYDVQQKDBZCbHVlIExlYWYgU29mdHdhcmUgTHRkMR4wHAYDVQQD
DBVCbHVlIExlYWYgU29mdHdhcmUgQ0EwHhcNMjMwNTExMjMwNjE3WhcNMjMwNTIx
MjMwNjE3WjB1MQswCQYDVQQGEwJOWjEQMA4GA1UECAwHV2Fpa2F0bzERMA8GA1UE
BwwISGFtaWx0b24xIDAeBgNVBAoMF0JsdWUgTGVhZiBTb2Z0d2FyZSwgTHRkMR8w
HQYDVQQDDBZMdW1vcyBIVywgU04gPSBCTFMtMDAyMFwwDQYJKoZIhvcNAQEBBQAD
SwAwSAJBAI4Tt6/zlB0C7aetnmtRpZesxaEiMJFnQDK6R8dNzL6Z92NKpa2oCtcB
/4it+RTLUtvPN5mGLz/u8K/Bw/bVqS8CAwEAAaOBpzCBpDAJBgNVHRMEAjAAMB0G
A1UdJQQWMBQGCCsGAQUFBwMBBggrBgEFBQcDAjA4BgNVHSABAf8ELjAsMAwGCisG
AQQBg9AmAgEwDQYLKwYBBAGD0CYCAQEwDQYLKwYBBAGD0CYCAQIwHQYDVR0OBBYE
FEHytY4qqFNoNSE9lYkjvmIZ8Bh6MB8GA1UdIwQYMBaAFBzQcOYVg82O+whxNwAF
lUxOk4JrMA0GCSqGSIb3DQEBCwUAA4ICAQABjGVsTV3Q+bsDlkCj/RRjzBpkJ8PJ
k0WWJrQ9MoS1NUl+Ihya8ofHCPkbxQRJ5w1ulcmEv0/dQuxYngdx6eBGGID9Mneo
H8eC/Hv4GyaW6OGDca0FpJk6xUZf1sia6yXhl/t+90EbD/lut3lcn4c0h60EszNP
Ns1IsUk5cXhpuyfuXQApiIYVCozdZ5MxTkfmF+pN/weX9+7MNCXwnN+VFs+wSdYK
Q6Vrowg6jZmKO4WKi7SFqyBHtILbImO6DmsAaCgQqF5Uwdm/3jW98yJ5R9zGS8JJ
Q2rLHTLjyKLlImWhiwcZ+sfqGV83M3YkTsRZAUDmLfIrxWR1BD4+HhAwZhfCqUW/
x2y7RarRUCCgurkMPFhj2vHEMAP7DWveq2dUsApuPKRGgX8Xb6Z6FsJbgZhz8phv
OD7qogt3EtVhfj+n0NVmnm6nIZjXYeIQsoO22jnbvRRQm/5EGGHntfdFwXEdo/7g
CRoZn7PRh5HX7zxjylGYkaUScqyrjV+3+N2FAII7BN1wFnE/kGqnDw6ioXeQ8LYF
uU9CLSvqyJjFzkp2q8lf+c2jBY/TXnOf03/ZhHHHwkU3X+4uG2ZvdJl+Zm3HfrfC
xGvOqTGXHK8vSE03IeeunfDpPt8AoqfFgSEbqW/W6FDOGTS3GhGPGVWjQ/GwKRGL
hK7TgALUmVo/vg==
-----END CERTIFICATE-----
