Certificate:
    Data:
        Version: 3 (0x2)
        Serial Number:
            24:e0:08:f6:78:7d:4e:4f:9c:2d:2d:9b:ad:b8:e9:87:4a:f6:e7:24
        Signature Algorithm: sha256WithRSAEncryption
        Issuer: C = NZ, ST = Waikato, L = Hamilton, O = Blue Leaf Software Ltd, CN = Blue Leaf Software CA
        Validity
            Not Before: May 11 23:38:58 2023 GMT
            Not After : May 21 23:38:58 2023 GMT
        Subject: C = NZ, ST = Waikato, L = Hamilton, O = "Blue Leaf Software, Ltd", CN = "Lumos HW, SN = BLS-002"
        Subject Public Key Info:
            Public Key Algorithm: rsaEncryption
                Public-Key: (1536 bit)
                Modulus:
                    00:8b:82:7d:db:a3:e2:81:6f:3e:92:b1:b4:63:fd:
                    3d:08:d9:e7:36:2c:db:7b:28:bb:2f:51:39:0c:f7:
                    2c:d2:81:fb:74:68:4a:56:c4:d0:a4:be:9f:d5:bb:
                    c9:ea:a5:94:93:1b:c9:8f:95:0f:98:9b:33:fa:5c:
                    2c:a1:92:69:f8:01:da:cd:75:e2:87:cf:2b:c9:d1:
                    d4:da:50:7b:6f:2e:e8:0d:bf:2d:a2:f1:c7:03:2a:
                    b9:09:de:1e:36:ee:b3:36:76:15:a1:83:06:f4:c7:
                    fa:d5:c4:da:ce:1d:20:66:c7:f4:5f:02:83:17:da:
                    f0:98:3f:d3:7d:fe:8c:c3:09:e1:cc:ea:fb:1e:0a:
                    33:58:de:91:8a:2c:ce:d9:b8:34:c0:f8:24:ff:29:
                    ec:69:f1:80:b2:94:a7:d4:a3:dc:26:21:48:db:5d:
                    2d:8b:98:93:88:18:98:34:17:40:8f:09:65:90:ce:
                    96:f2:1b:21:9c:01:c3:ae:7b:df:65:7b:b9
                Exponent: 65537 (0x10001)
        X509v3 extensions:
            X509v3 Basic Constraints: 
                CA:FALSE
            X509v3 Extended Key Usage: 
                TLS Web Server Authentication, TLS Web Client Authentication
            X509v3 Certificate Policies: critical
                Policy: 1.3.6.1.4.1.59430.2.1
                Policy: 1.3.6.1.4.1.59430.2.1.1
                Policy: 1.3.6.1.4.1.59430.2.1.2
            X509v3 Subject Key Identifier: 
                84:CB:B4:45:CD:E3:87:33:5F:D1:29:38:CD:1E:99:B3:85:BC:EF:00
            X509v3 Authority Key Identifier: 
                1C:D0:70:E6:15:83:CD:8E:FB:08:71:37:00:05:95:4C:4E:93:82:6B
    Signature Algorithm: sha256WithRSAEncryption
    Signature Value:
        68:c1:49:25:72:8c:b0:a4:02:b4:b2:00:be:51:de:d3:c5:4c:
        72:09:85:ae:bb:35:83:1d:36:04:4d:0c:6d:54:fe:b9:00:52:
        92:d0:aa:20:0f:70:bd:b7:b9:19:21:77:5e:73:e6:ce:ca:e5:
        d7:2e:58:4a:70:9e:42:91:b1:0f:92:f8:c5:c1:34:23:c1:d2:
        e9:4b:c5:14:f6:17:e8:a4:79:21:67:9b:2e:c3:36:f7:c7:b9:
        de:a9:37:4d:ba:50:18:27:b1:e4:89:c1:6a:f8:9d:a2:04:62:
        48:63:1e:9f:3c:c9:9c:9f:b1:66:a3:d8:31:b5:5d:c1:42:33:
        b4:c4:cf:5d:32:cf:50:fb:25:20:2a:71:24:4b:1d:c1:6c:74:
        a1:8c:6f:78:06:94:23:07:06:5a:c1:95:03:ee:69:ff:09:9b:
        2b:0b:28:af:7a:21:c6:2b:d4:84:a3:70:2c:2e:4d:cb:fa:5c:
        5e:f0:a8:60:5b:54:1e:69:e6:77:4e:e1:1a:73:41:ee:c3:08:
        0a:71:aa:23:80:e9:8d:7a:49:d1:33:1d:05:ff:2c:03:5b:c6:
        a4:37:a6:c4:cf:76:01:c9:54:40:c9:87:bf:18:93:33:3b:45:
        b6:17:e3:b9:d6:f7:bd:3a:93:af:31:ec:8c:16:8f:95:54:54:
        89:48:e7:99:92:7b:aa:03:e4:42:20:8c:08:77:17:0a:af:fe:
        03:d4:e5:fb:3a:24:77:99:2e:3a:66:55:ae:fb:f8:74:53:43:
        cb:11:68:33:31:b3:a3:ae:36:88:76:99:2b:69:ea:dc:a6:99:
        4c:ea:ef:88:48:75:aa:f7:fe:e2:bc:85:f5:17:8e:61:d3:4f:
        04:60:10:00:28:c9:6c:65:c9:6f:ed:0a:85:49:3f:ad:58:94:
        90:0b:3d:02:f8:b5:91:7b:e3:e5:be:fb:69:84:51:2a:53:a8:
        f5:d7:14:fd:be:8c:ab:05:ad:39:bd:18:cf:0c:00:e0:d8:68:
        22:e2:7c:df:43:d4:30:91:4a:4b:01:a7:58:d2:26:45:e6:91:
        66:07:c5:a1:ef:5d:16:aa:cd:cf:18:dc:70:68:f0:db:e2:4a:
        8b:18:a2:ef:54:63:80:5b:aa:78:98:74:ff:02:67:25:ff:ab:
        23:c4:f2:44:2b:86:3d:bb:42:f6:9d:d8:90:ef:bb:4b:eb:07:
        a5:2a:78:34:30:31:c5:86:42:36:d5:fe:6b:83:d3:e9:57:0c:
        d6:c6:0a:d8:65:9d:f9:05:7a:60:16:e8:43:93:9f:55:81:13:
        84:21:8c:01:9a:e2:42:d3:96:0d:8e:76:9b:20:5f:21:d0:0d:
        8c:b4:92:1c:fa:43:43:df
-----BEGIN CERTIFICATE-----
MIIE2jCCAsKgAwIBAgIUJOAI9nh9Tk+cLS2brbjph0r25yQwDQYJKoZIhvcNAQEL
BQAwczELMAkGA1UEBhMCTloxEDAOBgNVBAgMB1dhaWthdG8xETAPBgNVBAcMCEhh
bWlsdG9uMR8wHQYDVQQKDBZCbHVlIExlYWYgU29mdHdhcmUgTHRkMR4wHAYDVQQD
DBVCbHVlIExlYWYgU29mdHdhcmUgQ0EwHhcNMjMwNTExMjMzODU4WhcNMjMwNTIx
MjMzODU4WjB1MQswCQYDVQQGEwJOWjEQMA4GA1UECAwHV2Fpa2F0bzERMA8GA1UE
BwwISGFtaWx0b24xIDAeBgNVBAoMF0JsdWUgTGVhZiBTb2Z0d2FyZSwgTHRkMR8w
HQYDVQQDDBZMdW1vcyBIVywgU04gPSBCTFMtMDAyMIHfMA0GCSqGSIb3DQEBAQUA
A4HNADCByQKBwQCLgn3bo+KBbz6SsbRj/T0I2ec2LNt7KLsvUTkM9yzSgft0aEpW
xNCkvp/Vu8nqpZSTG8mPlQ+YmzP6XCyhkmn4AdrNdeKHzyvJ0dTaUHtvLugNvy2i
8ccDKrkJ3h427rM2dhWhgwb0x/rVxNrOHSBmx/RfAoMX2vCYP9N9/ozDCeHM6vse
CjNY3pGKLM7ZuDTA+CT/Kexp8YCylKfUo9wmIUjbXS2LmJOIGJg0F0CPCWWQzpby
GyGcAcOue99le7kCAwEAAaOBpzCBpDAJBgNVHRMEAjAAMB0GA1UdJQQWMBQGCCsG
AQUFBwMBBggrBgEFBQcDAjA4BgNVHSABAf8ELjAsMAwGCisGAQQBg9AmAgEwDQYL
KwYBBAGD0CYCAQEwDQYLKwYBBAGD0CYCAQIwHQYDVR0OBBYEFITLtEXN44czX9Ep
OM0embOFvO8AMB8GA1UdIwQYMBaAFBzQcOYVg82O+whxNwAFlUxOk4JrMA0GCSqG
SIb3DQEBCwUAA4ICAQBowUklcoywpAK0sgC+Ud7TxUxyCYWuuzWDHTYETQxtVP65
AFKS0KogD3C9t7kZIXdec+bOyuXXLlhKcJ5CkbEPkvjFwTQjwdLpS8UU9hfopHkh
Z5suwzb3x7neqTdNulAYJ7HkicFq+J2iBGJIYx6fPMmcn7Fmo9gxtV3BQjO0xM9d
Ms9Q+yUgKnEkSx3BbHShjG94BpQjBwZawZUD7mn/CZsrCyiveiHGK9SEo3AsLk3L
+lxe8KhgW1QeaeZ3TuEac0HuwwgKcaojgOmNeknRMx0F/ywDW8akN6bEz3YByVRA
yYe/GJMzO0W2F+O51ve9OpOvMeyMFo+VVFSJSOeZknuqA+RCIIwIdxcKr/4D1OX7
OiR3mS46ZlWu+/h0U0PLEWgzMbOjrjaIdpkraercpplM6u+ISHWq9/7ivIX1F45h
008EYBAAKMlsZclv7QqFST+tWJSQCz0C+LWRe+PlvvtphFEqU6j11xT9voyrBa05
vRjPDADg2Ggi4nzfQ9QwkUpLAadY0iZF5pFmB8Wh710Wqs3PGNxwaPDb4kqLGKLv
VGOAW6p4mHT/Amcl/6sjxPJEK4Y9u0L2ndiQ77tL6welKng0MDHFhkI21f5rg9Pp
VwzWxgrYZZ35BXpgFuhDk59VgROEIYwBmuJC05YNjnabIF8h0A2MtJIc+kND3w==
-----END CERTIFICATE-----
