Certificate:
    Data:
        Version: 3 (0x2)
        Serial Number:
            5f:46:e2:3d:de:ba:cf:9d:f5:d9:3c:8e:39:96:cf:1c:cc:d5:94:b4
        Signature Algorithm: sha256WithRSAEncryption
        Issuer: C = NZ, ST = Waikato, L = Hamilton, O = Blue Leaf Software Ltd, CN = Blue Leaf Software CA
        Validity
            Not Before: Apr 20 09:39:05 2023 GMT
            Not After : Apr 30 09:39:05 2023 GMT
        Subject: C = NZ, ST = Waikato, L = Hamilton, O = "Blue Leaf Software, Ltd", CN = "Lumos SW, serialNumber = BLS-001"
        Subject Public Key Info:
            Public Key Algorithm: rsaEncryption
                Public-Key: (2048 bit)
                Modulus:
                    00:98:43:7f:93:c1:3d:80:38:1a:16:ae:cc:f2:85:
                    13:56:f8:46:f2:40:fc:cb:f7:9c:ff:1c:8f:e9:5e:
                    16:09:8b:5c:1d:20:ca:51:ad:f5:9b:c8:ce:bb:70:
                    25:cf:16:b8:77:38:3f:c6:3b:e8:5e:b4:7a:44:8c:
                    6d:a0:96:1f:83:a7:2d:3f:5c:da:0d:85:45:9b:c1:
                    31:54:c7:f9:66:d4:9d:27:52:05:83:ba:5b:b7:44:
                    e3:f5:4f:c1:fd:8a:8f:0b:49:23:dc:24:04:b5:dc:
                    db:3a:76:fb:43:b0:63:f1:36:12:f7:b5:c8:71:9a:
                    37:69:d8:25:10:cc:c2:b2:d2:5c:5e:85:0c:a0:a6:
                    32:73:3c:0a:82:3b:3e:59:c7:4e:7b:aa:a3:0b:bf:
                    3d:6f:ec:d6:61:c5:30:c4:cc:a0:0b:06:0d:b2:e2:
                    a7:85:1f:87:15:5c:8a:63:7b:65:ce:21:ec:63:40:
                    4f:23:49:64:5a:76:d5:f6:c2:64:92:23:33:23:61:
                    e4:0f:42:43:a8:94:83:e2:c9:59:c7:eb:d9:c5:8e:
                    e5:84:b9:c9:55:62:ec:8d:48:8a:6f:79:e2:a7:f2:
                    ef:fa:5f:01:5b:34:43:98:6e:63:e3:b1:b2:e9:24:
                    aa:f4:f6:6b:f9:73:c6:7b:f2:ba:e0:44:67:27:57:
                    93:3b
                Exponent: 65537 (0x10001)
        X509v3 extensions:
            X509v3 Basic Constraints: 
                CA:FALSE
            X509v3 Extended Key Usage: 
                TLS Web Server Authentication, TLS Web Client Authentication
            X509v3 Certificate Policies: critical
                Policy: 1.3.6.1.4.1.59430.2.1
                Policy: 1.3.6.1.4.1.59430.2.1.1
                Policy: 1.3.6.1.4.1.59430.2.1.2
            X509v3 Subject Key Identifier: 
                B0:85:0E:7F:09:33:94:B5:13:78:0C:29:4C:DC:0E:78:85:A0:05:4D
            X509v3 Authority Key Identifier: 
                1C:D0:70:E6:15:83:CD:8E:FB:08:71:37:00:05:95:4C:4E:93:82:6B
    Signature Algorithm: sha256WithRSAEncryption
    Signature Value:
        34:65:78:a6:38:42:a7:a2:9b:67:30:5d:ea:98:30:a9:e5:c3:
        f3:ce:c0:56:ab:ad:32:5d:9e:26:58:13:4e:4e:44:bf:d1:f1:
        d4:99:a6:3b:f5:cd:48:47:e7:c2:3b:88:dc:92:33:3f:a5:3e:
        cd:57:87:e7:1e:a9:83:67:43:2b:34:1c:90:61:84:55:10:5a:
        cb:20:0f:8d:8e:c5:e3:01:24:65:e3:8a:d7:1e:10:49:be:2a:
        d9:c6:f2:f4:fa:0b:f4:65:fa:b7:de:ab:05:66:b4:40:39:28:
        47:34:e6:46:4c:a0:77:83:47:2a:3e:56:84:55:09:0a:4e:98:
        83:ac:1b:89:52:20:95:7e:79:20:21:af:69:b6:6e:a3:7a:76:
        67:90:de:f2:d7:5d:8d:46:fa:6d:70:23:2b:c8:da:b1:82:7a:
        1e:f0:41:72:01:4c:da:0f:05:9d:af:f2:71:89:68:47:92:f2:
        04:1f:fa:80:0c:51:cb:b2:48:52:a6:5b:b9:fa:65:26:49:d1:
        bf:81:39:b9:4a:b5:4d:4b:e9:69:04:1e:df:28:f2:c0:88:bc:
        49:ff:fc:a8:fb:e1:6a:6b:98:a0:f2:20:d8:1d:b3:b7:b9:84:
        59:97:89:18:2f:02:97:94:20:f7:33:9b:9a:98:68:d8:9f:31:
        36:59:cc:bc:e5:6d:a5:f6:1d:5d:42:0e:da:7f:a3:fe:c1:3c:
        a6:5a:e9:08:0a:9b:7f:76:c2:d0:af:c4:8b:d4:bf:6e:ae:28:
        18:35:5d:d4:87:1e:db:d1:63:08:c8:1e:2a:f2:80:f6:72:35:
        ff:df:fa:24:b2:77:f8:91:6f:8c:c4:8e:18:da:e4:d0:57:75:
        f6:cb:03:4c:dd:e1:c7:34:ff:ec:3e:e9:95:76:1a:e8:9a:18:
        67:b7:a6:b1:05:60:69:8c:c1:40:71:b9:e2:fa:a2:f9:22:c2:
        5e:24:e1:42:04:85:6f:2d:0b:53:64:75:24:2f:3d:46:f7:ad:
        20:fa:d5:7f:1b:74:d3:af:93:ff:4e:72:19:4f:04:b5:7a:80:
        8f:a6:fd:7c:c3:77:b0:36:fd:77:ad:b8:ba:13:99:4e:ec:39:
        59:95:1b:d0:23:f9:dd:85:86:d0:07:48:28:13:15:98:59:df:
        c7:47:bb:ac:36:bc:da:de:99:84:0f:0b:0b:33:a3:f2:64:02:
        5e:1d:15:0e:e2:47:23:bd:70:e0:2f:57:50:fd:28:9d:ec:33:
        23:b3:28:ec:5b:b0:36:05:cd:ec:74:cf:43:0d:c1:9f:48:77:
        74:4e:8d:2c:c8:3d:93:a7:d7:ec:c9:1f:b3:d2:4f:b4:0c:1d:
        25:b9:52:f4:34:c6:0a:85
-----BEGIN CERTIFICATE-----
MIIFKDCCAxCgAwIBAgIUX0biPd66z5312TyOOZbPHMzVlLQwDQYJKoZIhvcNAQEL
BQAwczELMAkGA1UEBhMCTloxEDAOBgNVBAgMB1dhaWthdG8xETAPBgNVBAcMCEhh
bWlsdG9uMR8wHQYDVQQKDBZCbHVlIExlYWYgU29mdHdhcmUgTHRkMR4wHAYDVQQD
DBVCbHVlIExlYWYgU29mdHdhcmUgQ0EwHhcNMjMwNDIwMDkzOTA1WhcNMjMwNDMw
MDkzOTA1WjB/MQswCQYDVQQGEwJOWjEQMA4GA1UECAwHV2Fpa2F0bzERMA8GA1UE
BwwISGFtaWx0b24xIDAeBgNVBAoMF0JsdWUgTGVhZiBTb2Z0d2FyZSwgTHRkMSkw
JwYDVQQDDCBMdW1vcyBTVywgc2VyaWFsTnVtYmVyID0gQkxTLTAwMTCCASIwDQYJ
KoZIhvcNAQEBBQADggEPADCCAQoCggEBAJhDf5PBPYA4GhauzPKFE1b4RvJA/Mv3
nP8cj+leFgmLXB0gylGt9ZvIzrtwJc8WuHc4P8Y76F60ekSMbaCWH4OnLT9c2g2F
RZvBMVTH+WbUnSdSBYO6W7dE4/VPwf2KjwtJI9wkBLXc2zp2+0OwY/E2Eve1yHGa
N2nYJRDMwrLSXF6FDKCmMnM8CoI7PlnHTnuqowu/PW/s1mHFMMTMoAsGDbLip4Uf
hxVcimN7Zc4h7GNATyNJZFp21fbCZJIjMyNh5A9CQ6iUg+LJWcfr2cWO5YS5yVVi
7I1Iim954qfy7/pfAVs0Q5huY+OxsukkqvT2a/lzxnvyuuBEZydXkzsCAwEAAaOB
pzCBpDAJBgNVHRMEAjAAMB0GA1UdJQQWMBQGCCsGAQUFBwMBBggrBgEFBQcDAjA4
BgNVHSABAf8ELjAsMAwGCisGAQQBg9AmAgEwDQYLKwYBBAGD0CYCAQEwDQYLKwYB
BAGD0CYCAQIwHQYDVR0OBBYEFLCFDn8JM5S1E3gMKUzcDniFoAVNMB8GA1UdIwQY
MBaAFBzQcOYVg82O+whxNwAFlUxOk4JrMA0GCSqGSIb3DQEBCwUAA4ICAQA0ZXim
OEKnoptnMF3qmDCp5cPzzsBWq60yXZ4mWBNOTkS/0fHUmaY79c1IR+fCO4jckjM/
pT7NV4fnHqmDZ0MrNByQYYRVEFrLIA+NjsXjASRl44rXHhBJvirZxvL0+gv0Zfq3
3qsFZrRAOShHNOZGTKB3g0cqPlaEVQkKTpiDrBuJUiCVfnkgIa9ptm6jenZnkN7y
112NRvptcCMryNqxgnoe8EFyAUzaDwWdr/JxiWhHkvIEH/qADFHLskhSplu5+mUm
SdG/gTm5SrVNS+lpBB7fKPLAiLxJ//yo++Fqa5ig8iDYHbO3uYRZl4kYLwKXlCD3
M5uamGjYnzE2Wcy85W2l9h1dQg7af6P+wTymWukICpt/dsLQr8SL1L9urigYNV3U
hx7b0WMIyB4q8oD2cjX/3/oksnf4kW+MxI4Y2uTQV3X2ywNM3eHHNP/sPumVdhro
mhhnt6axBWBpjMFAcbni+qL5IsJeJOFCBIVvLQtTZHUkLz1G960g+tV/G3TTr5P/
TnIZTwS1eoCPpv18w3ewNv13rbi6E5lO7DlZlRvQI/ndhYbQB0goExWYWd/HR7us
Nrza3pmEDwsLM6PyZAJeHRUO4kcjvXDgL1dQ/Sid7DMjsyjsW7A2Bc3sdM9DDcGf
SHd0To0syD2Tp9fsyR+z0k+0DB0luVL0NMYKhQ==
-----END CERTIFICATE-----
