Certificate:
    Data:
        Version: 3 (0x2)
        Serial Number:
            0f:de:e8:6e:f3:4f:30:4d:d8:bf:24:f0:92:7d:25:6e:e8:9e:a7:df
        Signature Algorithm: sha256WithRSAEncryption
        Issuer: C = NZ, ST = Waikato, L = Hamilton, O = Blue Leaf Software Ltd, CN = Blue Leaf Software CA
        Validity
            Not Before: Apr 29 17:33:20 2023 GMT
            Not After : May  9 17:33:20 2023 GMT
        Subject: C = NZ, ST = Waikato, L = Hamilton, O = "Blue Leaf Software, Ltd", CN = "Lumos HW, serialNumber = BLS-002"
        Subject Public Key Info:
            Public Key Algorithm: rsaEncryption
                Public-Key: (512 bit)
                Modulus:
                    00:af:98:1e:da:52:ef:f4:26:9e:92:b1:72:14:b6:
                    df:2e:89:fa:17:c1:cc:11:53:10:22:f8:5b:93:32:
                    34:8e:53:d1:5b:a2:8d:d5:e8:60:6a:0f:4c:c5:0a:
                    ad:ce:bb:6e:0a:5e:da:2a:d0:2f:ec:0c:63:16:53:
                    e2:24:5b:14:b9
                Exponent: 65537 (0x10001)
        X509v3 extensions:
            X509v3 Basic Constraints: 
                CA:FALSE
            X509v3 Extended Key Usage: 
                TLS Web Server Authentication, TLS Web Client Authentication
            X509v3 Certificate Policies: critical
                Policy: 1.3.6.1.4.1.59430.2.1
                Policy: 1.3.6.1.4.1.59430.2.1.1
                Policy: 1.3.6.1.4.1.59430.2.1.2
            X509v3 Subject Key Identifier: 
                8B:81:2E:3C:EB:D3:7B:DD:6B:2A:38:8C:DA:14:D7:C5:86:E5:8A:50
            X509v3 Authority Key Identifier: 
                1C:D0:70:E6:15:83:CD:8E:FB:08:71:37:00:05:95:4C:4E:93:82:6B
    Signature Algorithm: sha256WithRSAEncryption
    Signature Value:
        b7:ec:ac:87:11:85:cd:b9:56:c0:79:3b:aa:7d:59:9c:e7:6f:
        97:91:b0:22:0a:11:dc:a8:41:83:fc:9e:0d:17:2b:62:d8:87:
        ac:a6:ef:e7:94:e5:8c:92:d1:08:90:49:32:a5:23:ef:a0:8d:
        06:5f:12:77:a9:ad:09:a8:8e:7c:8b:1f:32:2a:8f:8f:7e:75:
        c4:d7:98:1c:2d:2d:4a:ac:cd:e3:6b:f1:c1:5c:6c:2b:c8:c6:
        1f:1c:c0:30:5e:b8:c0:b2:71:6b:04:bb:57:2a:38:b1:bf:97:
        38:fe:f5:61:31:9b:01:42:8a:43:a8:e2:71:f0:40:ee:23:99:
        32:cd:15:e1:ef:a3:f8:7a:39:20:72:ac:59:66:cd:3c:84:0b:
        45:11:9b:28:65:26:de:ef:1c:1f:92:92:df:dc:00:1e:e8:93:
        9c:fc:7c:6c:af:fd:1e:50:ee:f0:6d:af:80:d6:b0:56:b2:21:
        20:33:f6:e7:e7:94:e3:c7:73:41:37:2c:26:81:34:48:e7:46:
        83:0d:01:ba:9c:98:93:a0:4a:a2:5b:42:a6:5a:f4:6d:9d:e1:
        33:f4:bf:2f:47:6d:1b:d1:3c:8a:f0:28:1d:ec:01:57:c2:d4:
        bf:e4:b2:49:d0:da:a2:d9:62:f7:b6:7a:84:a2:2d:0a:51:a2:
        c1:57:08:7a:8d:7e:78:e2:5d:c9:2c:70:73:a1:b5:84:b7:64:
        56:34:99:10:25:53:3d:fa:c5:bd:d4:de:9a:68:fb:2f:c5:fc:
        f9:a0:47:78:be:29:23:da:78:94:53:36:3b:e3:94:60:69:14:
        9e:85:eb:f6:70:32:8d:75:19:e4:ad:45:ab:89:e1:f8:0c:bb:
        3a:64:e3:35:d7:52:99:ef:ba:ef:91:41:63:59:35:8d:09:55:
        29:32:9a:8b:20:fe:81:aa:13:5e:ad:26:61:ea:f2:27:ef:7c:
        8e:02:10:cd:f7:ee:44:00:3a:0a:0a:0b:f3:ab:d0:92:04:bb:
        b0:47:01:45:ab:fa:b2:54:6c:72:38:ae:25:db:3f:18:9d:72:
        0d:5a:46:bf:11:cd:8c:9f:fd:3d:bc:5f:89:0f:24:ce:e1:11:
        3c:1f:d4:82:65:53:a8:20:9e:6f:a1:f3:9b:fe:f8:47:9c:bc:
        f6:87:84:f1:5d:f0:22:8c:1c:b6:a9:f1:61:c5:78:b4:d1:77:
        4f:f8:3d:e9:fd:d2:6c:ab:6c:9f:3e:60:09:63:7e:cd:ec:c5:
        fd:56:93:72:b0:36:82:44:62:16:5b:92:c7:8c:26:52:2f:e4:
        5b:f9:28:9b:ef:59:dd:bf:96:15:b6:8e:83:94:32:3c:8b:3a:
        67:29:a9:a2:cc:24:b0:0c
-----BEGIN CERTIFICATE-----
MIIEYDCCAkigAwIBAgIUD97obvNPME3YvyTwkn0lbuiep98wDQYJKoZIhvcNAQEL
BQAwczELMAkGA1UEBhMCTloxEDAOBgNVBAgMB1dhaWthdG8xETAPBgNVBAcMCEhh
bWlsdG9uMR8wHQYDVQQKDBZCbHVlIExlYWYgU29mdHdhcmUgTHRkMR4wHAYDVQQD
DBVCbHVlIExlYWYgU29mdHdhcmUgQ0EwHhcNMjMwNDI5MTczMzIwWhcNMjMwNTA5
MTczMzIwWjB/MQswCQYDVQQGEwJOWjEQMA4GA1UECAwHV2Fpa2F0bzERMA8GA1UE
BwwISGFtaWx0b24xIDAeBgNVBAoMF0JsdWUgTGVhZiBTb2Z0d2FyZSwgTHRkMSkw
JwYDVQQDDCBMdW1vcyBIVywgc2VyaWFsTnVtYmVyID0gQkxTLTAwMjBcMA0GCSqG
SIb3DQEBAQUAA0sAMEgCQQCvmB7aUu/0Jp6SsXIUtt8uifoXwcwRUxAi+FuTMjSO
U9Fboo3V6GBqD0zFCq3Ou24KXtoq0C/sDGMWU+IkWxS5AgMBAAGjgacwgaQwCQYD
VR0TBAIwADAdBgNVHSUEFjAUBggrBgEFBQcDAQYIKwYBBQUHAwIwOAYDVR0gAQH/
BC4wLDAMBgorBgEEAYPQJgIBMA0GCysGAQQBg9AmAgEBMA0GCysGAQQBg9AmAgEC
MB0GA1UdDgQWBBSLgS4869N73WsqOIzaFNfFhuWKUDAfBgNVHSMEGDAWgBQc0HDm
FYPNjvsIcTcABZVMTpOCazANBgkqhkiG9w0BAQsFAAOCAgEAt+yshxGFzblWwHk7
qn1ZnOdvl5GwIgoR3KhBg/yeDRcrYtiHrKbv55TljJLRCJBJMqUj76CNBl8Sd6mt
CaiOfIsfMiqPj351xNeYHC0tSqzN42vxwVxsK8jGHxzAMF64wLJxawS7Vyo4sb+X
OP71YTGbAUKKQ6jicfBA7iOZMs0V4e+j+Ho5IHKsWWbNPIQLRRGbKGUm3u8cH5KS
39wAHuiTnPx8bK/9HlDu8G2vgNawVrIhIDP25+eU48dzQTcsJoE0SOdGgw0BupyY
k6BKoltCplr0bZ3hM/S/L0dtG9E8ivAoHewBV8LUv+SySdDaotli97Z6hKItClGi
wVcIeo1+eOJdySxwc6G1hLdkVjSZECVTPfrFvdTemmj7L8X8+aBHeL4pI9p4lFM2
O+OUYGkUnoXr9nAyjXUZ5K1Fq4nh+Ay7OmTjNddSme+675FBY1k1jQlVKTKaiyD+
gaoTXq0mYeryJ+98jgIQzffuRAA6CgoL86vQkgS7sEcBRav6slRscjiuJds/GJ1y
DVpGvxHNjJ/9PbxfiQ8kzuERPB/UgmVTqCCeb6Hzm/74R5y89oeE8V3wIowctqnx
YcV4tNF3T/g96f3SbKtsnz5gCWN+zezF/VaTcrA2gkRiFluSx4wmUi/kW/kom+9Z
3b+WFbaOg5QyPIs6ZymposwksAw=
-----END CERTIFICATE-----
