Certificate:
    Data:
        Version: 3 (0x2)
        Serial Number:
            67:b7:4c:03:ec:c4:5a:79:89:fc:33:b9:c7:2b:97:6c:a3:28:5d:b5
        Signature Algorithm: sha256WithRSAEncryption
        Issuer: C = NZ, ST = Waikato, L = Hamilton, O = Blue Leaf Software Ltd, CN = Blue Leaf Software CA
        Validity
            Not Before: May 11 21:01:47 2023 GMT
            Not After : May 21 21:01:47 2023 GMT
        Subject: C = NZ, ST = Waikato, L = Hamilton, O = "Blue Leaf Software, Ltd", CN = "Lumos HW, SN = BLS-002"
        Subject Public Key Info:
            Public Key Algorithm: rsaEncryption
                Public-Key: (512 bit)
                Modulus:
                    00:af:75:ef:97:cb:c8:cf:72:39:ff:cf:b0:4c:3d:
                    d2:10:32:dc:f6:57:e0:e3:ad:21:ab:ca:fa:2c:ed:
                    b4:0c:ca:a9:06:c2:27:5a:6b:0b:0e:d9:5e:6c:21:
                    2d:db:8a:a0:c5:24:a5:78:f8:8a:61:f0:a3:85:02:
                    03:6d:8d:2b:23
                Exponent: 65537 (0x10001)
        X509v3 extensions:
            X509v3 Basic Constraints: 
                CA:FALSE
            X509v3 Extended Key Usage: 
                TLS Web Server Authentication, TLS Web Client Authentication
            X509v3 Certificate Policies: critical
                Policy: 1.3.6.1.4.1.59430.2.1
                Policy: 1.3.6.1.4.1.59430.2.1.1
                Policy: 1.3.6.1.4.1.59430.2.1.2
            X509v3 Subject Key Identifier: 
                68:E9:AF:29:82:63:29:71:15:0D:36:7A:1C:D6:C1:9B:0F:1B:4B:9C
            X509v3 Authority Key Identifier: 
                1C:D0:70:E6:15:83:CD:8E:FB:08:71:37:00:05:95:4C:4E:93:82:6B
    Signature Algorithm: sha256WithRSAEncryption
    Signature Value:
        a0:70:7e:dc:ab:56:d2:96:c0:35:12:21:46:73:f4:aa:56:5e:
        37:96:14:e3:8c:d5:c4:5c:3b:6b:64:bb:a3:cf:8d:e3:f5:b3:
        ec:60:b7:74:ef:a9:17:33:3c:20:bf:32:8b:22:ee:92:8f:07:
        61:98:1f:1b:fd:9d:fd:20:d4:ae:1e:c2:c9:08:2f:38:6b:28:
        40:f7:dc:a4:6d:3e:9f:17:18:6c:60:f8:d1:37:2e:9f:32:19:
        e3:cc:71:76:6a:3b:a5:ce:ca:0f:40:10:46:0e:35:4f:93:19:
        fe:3f:a7:37:20:54:bf:0f:18:73:c4:09:3f:8a:c3:00:73:02:
        9d:9f:bb:2f:f6:a0:89:7f:40:aa:49:c3:e6:7c:7c:bc:22:77:
        44:f3:fc:e6:f8:9e:bf:7c:b1:36:1e:ba:4b:a7:5e:98:8c:f7:
        51:0d:f7:a2:75:dd:58:7f:b7:36:02:52:e6:22:8e:16:5d:3d:
        75:8b:44:7b:9f:e2:9e:e1:06:f9:b1:cd:cb:29:b8:91:a1:97:
        34:90:87:0c:99:9b:68:2b:35:c8:6d:06:75:fe:9c:c8:18:fe:
        e3:84:bb:d3:9d:15:bb:a0:f2:e5:9b:e7:e1:44:b3:8f:f0:5b:
        e5:1d:c5:6a:3c:e7:b5:f1:30:73:c9:a4:61:64:5d:d2:82:8f:
        52:58:3e:d4:d0:99:69:b5:ef:ff:fb:01:75:d8:a1:4e:f3:91:
        5c:60:5c:2f:0b:bc:a1:79:0e:25:d8:07:cf:6e:c0:20:89:2a:
        bf:dd:93:68:4a:ab:54:58:b2:d3:8f:b8:c4:24:f4:55:19:d9:
        df:b4:b4:11:79:59:ee:a5:e7:5a:77:4a:bf:fb:f6:d1:a5:33:
        9b:58:4c:92:fe:45:d1:e0:3e:84:d5:aa:07:48:bd:fe:14:29:
        c2:d2:82:60:85:16:2d:40:70:ce:0a:0f:d6:e0:73:45:2c:62:
        40:24:9f:cc:73:03:79:41:f3:74:77:b8:82:8a:4e:c8:d5:81:
        b2:26:b6:cb:ee:c9:76:15:0c:3b:a0:f4:ef:9a:7d:33:83:3e:
        51:89:91:6e:87:d5:d4:91:43:d6:20:1f:a1:e6:d1:65:6d:95:
        93:2d:67:be:98:95:0f:c0:6c:4e:64:e1:b3:f6:87:47:97:97:
        97:ec:4f:80:eb:27:dc:78:06:f5:34:92:4f:d3:13:08:d0:c1:
        07:18:b4:e4:ab:cb:bd:1b:65:75:38:ed:35:04:ce:e8:87:04:
        49:72:7c:56:72:bd:37:e0:92:6e:b4:b5:95:fd:2c:df:09:94:
        e0:0e:b6:c0:d1:10:36:f6:2d:86:a9:15:a0:57:3a:f1:a5:74:
        e0:63:ff:fb:44:35:d7:86
-----BEGIN CERTIFICATE-----
MIIEVjCCAj6gAwIBAgIUZ7dMA+zEWnmJ/DO5xyuXbKMoXbUwDQYJKoZIhvcNAQEL
BQAwczELMAkGA1UEBhMCTloxEDAOBgNVBAgMB1dhaWthdG8xETAPBgNVBAcMCEhh
bWlsdG9uMR8wHQYDVQQKDBZCbHVlIExlYWYgU29mdHdhcmUgTHRkMR4wHAYDVQQD
DBVCbHVlIExlYWYgU29mdHdhcmUgQ0EwHhcNMjMwNTExMjEwMTQ3WhcNMjMwNTIx
MjEwMTQ3WjB1MQswCQYDVQQGEwJOWjEQMA4GA1UECAwHV2Fpa2F0bzERMA8GA1UE
BwwISGFtaWx0b24xIDAeBgNVBAoMF0JsdWUgTGVhZiBTb2Z0d2FyZSwgTHRkMR8w
HQYDVQQDDBZMdW1vcyBIVywgU04gPSBCTFMtMDAyMFwwDQYJKoZIhvcNAQEBBQAD
SwAwSAJBAK9175fLyM9yOf/PsEw90hAy3PZX4OOtIavK+izttAzKqQbCJ1prCw7Z
XmwhLduKoMUkpXj4imHwo4UCA22NKyMCAwEAAaOBpzCBpDAJBgNVHRMEAjAAMB0G
A1UdJQQWMBQGCCsGAQUFBwMBBggrBgEFBQcDAjA4BgNVHSABAf8ELjAsMAwGCisG
AQQBg9AmAgEwDQYLKwYBBAGD0CYCAQEwDQYLKwYBBAGD0CYCAQIwHQYDVR0OBBYE
FGjprymCYylxFQ02ehzWwZsPG0ucMB8GA1UdIwQYMBaAFBzQcOYVg82O+whxNwAF
lUxOk4JrMA0GCSqGSIb3DQEBCwUAA4ICAQCgcH7cq1bSlsA1EiFGc/SqVl43lhTj
jNXEXDtrZLujz43j9bPsYLd076kXMzwgvzKLIu6SjwdhmB8b/Z39INSuHsLJCC84
ayhA99ykbT6fFxhsYPjRNy6fMhnjzHF2ajulzsoPQBBGDjVPkxn+P6c3IFS/Dxhz
xAk/isMAcwKdn7sv9qCJf0CqScPmfHy8IndE8/zm+J6/fLE2HrpLp16YjPdRDfei
dd1Yf7c2AlLmIo4WXT11i0R7n+Ke4Qb5sc3LKbiRoZc0kIcMmZtoKzXIbQZ1/pzI
GP7jhLvTnRW7oPLlm+fhRLOP8FvlHcVqPOe18TBzyaRhZF3Sgo9SWD7U0Jlpte//
+wF12KFO85FcYFwvC7yheQ4l2AfPbsAgiSq/3ZNoSqtUWLLTj7jEJPRVGdnftLQR
eVnupedad0q/+/bRpTObWEyS/kXR4D6E1aoHSL3+FCnC0oJghRYtQHDOCg/W4HNF
LGJAJJ/McwN5QfN0d7iCik7I1YGyJrbL7sl2FQw7oPTvmn0zgz5RiZFuh9XUkUPW
IB+h5tFlbZWTLWe+mJUPwGxOZOGz9odHl5eX7E+A6yfceAb1NJJP0xMI0MEHGLTk
q8u9G2V1OO01BM7ohwRJcnxWcr034JJutLWV/SzfCZTgDrbA0RA29i2GqRWgVzrx
pXTgY//7RDXXhg==
-----END CERTIFICATE-----
