Certificate:
    Data:
        Version: 3 (0x2)
        Serial Number:
            4b:f5:2a:7e:35:58:b6:10:ef:10:55:fc:20:b0:fd:9f:76:e5:ac:0b
        Signature Algorithm: sha256WithRSAEncryption
        Issuer: C = NZ, ST = Waikato, L = Hamilton, O = Blue Leaf Software Ltd, CN = Blue Leaf Software CA
        Validity
            Not Before: Apr 20 17:01:45 2023 GMT
            Not After : Apr 30 17:01:45 2023 GMT
        Subject: C = NZ, ST = Waikato, L = Hamilton, O = "Blue Leaf Software, Ltd", CN = "Lumos HW, serialNumber = BLS-002"
        Subject Public Key Info:
            Public Key Algorithm: rsaEncryption
                Public-Key: (2048 bit)
                Modulus:
                    00:eb:79:39:42:59:5b:5a:a9:15:71:00:b3:4b:33:
                    28:80:a3:7b:13:19:67:20:a3:59:db:a2:29:23:57:
                    49:27:07:3a:b0:df:99:38:bb:fa:72:eb:d7:bd:39:
                    cd:2d:40:eb:d5:36:9c:7e:d9:54:28:11:99:4b:bc:
                    2a:aa:2f:5f:83:a2:12:12:a1:f9:35:1d:ba:9b:68:
                    c9:b2:43:d9:ee:85:86:17:1d:e7:ba:90:a5:a3:12:
                    c3:4c:b0:a3:bb:82:02:f3:f8:93:a2:33:a0:ac:a7:
                    5e:62:b2:ba:43:62:8e:58:21:68:aa:e5:f8:db:c9:
                    1a:ab:5b:b5:30:83:5e:b1:da:91:a0:fd:b3:aa:5a:
                    70:c3:26:91:f0:7a:ce:40:d7:6e:25:f8:4f:2a:e4:
                    55:13:85:f9:62:e5:f3:e7:a2:d4:1c:c0:2b:1f:2b:
                    99:e2:ac:e4:74:11:22:8b:e4:ba:ba:03:9f:78:4a:
                    13:d9:7d:75:41:e4:84:04:c2:02:8a:90:e7:18:33:
                    d6:15:8d:73:b0:4f:c8:3d:8a:97:70:11:77:a2:8c:
                    9b:37:43:95:28:d3:61:4b:e9:ee:00:88:ff:5d:3b:
                    dc:7c:75:14:09:8c:ad:1f:51:23:cc:71:c9:36:0f:
                    29:9b:71:19:b3:c0:35:2b:42:24:97:22:39:9f:1e:
                    0e:7f
                Exponent: 65537 (0x10001)
        X509v3 extensions:
            X509v3 Basic Constraints: 
                CA:FALSE
            X509v3 Extended Key Usage: 
                TLS Web Server Authentication, TLS Web Client Authentication
            X509v3 Certificate Policies: critical
                Policy: 1.3.6.1.4.1.59430.2.1
                Policy: 1.3.6.1.4.1.59430.2.1.1
                Policy: 1.3.6.1.4.1.59430.2.1.2
            X509v3 Subject Key Identifier: 
                11:00:4A:F8:A3:D8:F8:6B:FF:B1:CA:3B:0C:00:8E:C9:CE:27:6A:DE
            X509v3 Authority Key Identifier: 
                1C:D0:70:E6:15:83:CD:8E:FB:08:71:37:00:05:95:4C:4E:93:82:6B
    Signature Algorithm: sha256WithRSAEncryption
    Signature Value:
        a3:e3:42:e7:36:59:fc:f0:2d:a9:4e:fd:d1:bc:b6:20:ef:0b:
        e1:0f:9e:b4:67:20:2f:17:87:db:64:de:65:56:ef:b1:20:4b:
        ed:cf:82:88:eb:6f:46:e5:4a:37:6b:d3:06:65:62:40:d2:53:
        6f:15:af:e5:19:b2:a0:08:8a:37:b1:0f:72:40:ac:7e:91:95:
        ca:43:46:fd:e1:31:74:20:6f:b8:30:72:af:69:74:5b:b1:14:
        5a:95:75:b3:bf:a3:1c:28:6f:10:b8:b3:5c:c2:c0:61:2f:73:
        7d:59:03:cb:2b:20:b3:cc:54:67:b1:8b:1e:88:35:3a:40:df:
        00:f7:25:ff:25:7a:de:0d:a4:fc:3c:61:9e:09:68:d8:eb:b5:
        e1:64:32:63:f0:75:d9:d5:30:c4:9e:d7:99:3a:a9:e8:9c:cd:
        f5:9a:68:21:90:28:f4:fc:aa:54:ce:25:cd:e3:d8:9b:cf:be:
        33:54:a4:97:f7:83:40:5c:2a:a9:da:7f:7f:62:73:83:96:a4:
        15:3d:cc:8e:71:b7:4f:84:5c:e0:d8:20:79:8b:10:c3:a1:49:
        d3:50:e1:c0:ae:40:1c:c6:db:c6:1f:d8:de:c9:d4:87:4f:0f:
        ff:9b:6f:8d:d6:7f:84:ec:0d:d2:a9:ef:12:6f:64:27:c3:0a:
        db:cc:75:84:55:cf:5b:32:a1:b4:8c:a0:50:6f:5c:7e:a8:82:
        d9:50:f8:66:ee:f1:27:90:a0:a4:4f:b5:b2:bd:33:d3:3d:9a:
        6b:d0:21:27:b0:07:10:d4:76:ee:24:52:80:5d:f5:70:b5:81:
        28:fb:0b:83:af:7d:24:b8:86:2f:87:f1:9e:f7:4d:2b:76:f5:
        98:a0:20:a2:0f:99:13:e7:20:18:f4:0e:e3:13:c0:f6:dc:cf:
        e8:8a:01:dd:d4:4d:90:76:aa:05:a2:40:09:4f:60:e2:52:88:
        c1:99:77:12:12:b9:f5:fe:25:48:1b:4c:27:a0:01:ef:13:d2:
        88:02:16:99:f2:36:d9:6b:5a:82:ef:f0:2e:60:fc:00:41:75:
        df:8e:d9:75:d5:58:be:af:85:21:21:36:d1:38:2d:ce:d3:6b:
        a9:a5:fa:94:c3:14:96:3e:dd:c6:47:6b:e0:9d:53:88:82:ae:
        b1:17:c5:85:c2:c4:48:f9:8e:39:6a:6c:1b:e9:e0:ea:ca:87:
        7b:b6:14:3a:ae:4c:f1:a4:0b:a8:f2:d0:9f:08:b8:be:61:48:
        01:50:28:7a:76:07:35:56:c0:2f:a1:32:37:1d:62:f5:b4:51:
        db:e4:f7:27:1b:36:70:1c:e3:b0:01:51:0d:a8:2c:3f:4a:31:
        3a:d0:bd:95:41:0c:57:26
-----BEGIN CERTIFICATE-----
MIIFKDCCAxCgAwIBAgIUS/UqfjVYthDvEFX8ILD9n3blrAswDQYJKoZIhvcNAQEL
BQAwczELMAkGA1UEBhMCTloxEDAOBgNVBAgMB1dhaWthdG8xETAPBgNVBAcMCEhh
bWlsdG9uMR8wHQYDVQQKDBZCbHVlIExlYWYgU29mdHdhcmUgTHRkMR4wHAYDVQQD
DBVCbHVlIExlYWYgU29mdHdhcmUgQ0EwHhcNMjMwNDIwMTcwMTQ1WhcNMjMwNDMw
MTcwMTQ1WjB/MQswCQYDVQQGEwJOWjEQMA4GA1UECAwHV2Fpa2F0bzERMA8GA1UE
BwwISGFtaWx0b24xIDAeBgNVBAoMF0JsdWUgTGVhZiBTb2Z0d2FyZSwgTHRkMSkw
JwYDVQQDDCBMdW1vcyBIVywgc2VyaWFsTnVtYmVyID0gQkxTLTAwMjCCASIwDQYJ
KoZIhvcNAQEBBQADggEPADCCAQoCggEBAOt5OUJZW1qpFXEAs0szKICjexMZZyCj
WduiKSNXSScHOrDfmTi7+nLr1705zS1A69U2nH7ZVCgRmUu8KqovX4OiEhKh+TUd
uptoybJD2e6Fhhcd57qQpaMSw0ywo7uCAvP4k6IzoKynXmKyukNijlghaKrl+NvJ
GqtbtTCDXrHakaD9s6pacMMmkfB6zkDXbiX4TyrkVROF+WLl8+ei1BzAKx8rmeKs
5HQRIovkuroDn3hKE9l9dUHkhATCAoqQ5xgz1hWNc7BPyD2Kl3ARd6KMmzdDlSjT
YUvp7gCI/1073Hx1FAmMrR9RI8xxyTYPKZtxGbPANStCJJciOZ8eDn8CAwEAAaOB
pzCBpDAJBgNVHRMEAjAAMB0GA1UdJQQWMBQGCCsGAQUFBwMBBggrBgEFBQcDAjA4
BgNVHSABAf8ELjAsMAwGCisGAQQBg9AmAgEwDQYLKwYBBAGD0CYCAQEwDQYLKwYB
BAGD0CYCAQIwHQYDVR0OBBYEFBEASvij2Phr/7HKOwwAjsnOJ2reMB8GA1UdIwQY
MBaAFBzQcOYVg82O+whxNwAFlUxOk4JrMA0GCSqGSIb3DQEBCwUAA4ICAQCj40Ln
Nln88C2pTv3RvLYg7wvhD560ZyAvF4fbZN5lVu+xIEvtz4KI629G5Uo3a9MGZWJA
0lNvFa/lGbKgCIo3sQ9yQKx+kZXKQ0b94TF0IG+4MHKvaXRbsRRalXWzv6McKG8Q
uLNcwsBhL3N9WQPLKyCzzFRnsYseiDU6QN8A9yX/JXreDaT8PGGeCWjY67XhZDJj
8HXZ1TDEnteZOqnonM31mmghkCj0/KpUziXN49ibz74zVKSX94NAXCqp2n9/YnOD
lqQVPcyOcbdPhFzg2CB5ixDDoUnTUOHArkAcxtvGH9jeydSHTw//m2+N1n+E7A3S
qe8Sb2QnwwrbzHWEVc9bMqG0jKBQb1x+qILZUPhm7vEnkKCkT7WyvTPTPZpr0CEn
sAcQ1HbuJFKAXfVwtYEo+wuDr30kuIYvh/Ge900rdvWYoCCiD5kT5yAY9A7jE8D2
3M/oigHd1E2QdqoFokAJT2DiUojBmXcSErn1/iVIG0wnoAHvE9KIAhaZ8jbZa1qC
7/AuYPwAQXXfjtl11Vi+r4UhITbROC3O02uppfqUwxSWPt3GR2vgnVOIgq6xF8WF
wsRI+Y45amwb6eDqyod7thQ6rkzxpAuo8tCfCLi+YUgBUCh6dgc1VsAvoTI3HWL1
tFHb5PcnGzZwHOOwAVENqCw/SjE60L2VQQxXJg==
-----END CERTIFICATE-----
