Certificate:
    Data:
        Version: 3 (0x2)
        Serial Number:
            35:b4:c3:47:a1:bd:91:cb:78:84:19:3c:79:04:ff:da:0f:e5:f4:ba
        Signature Algorithm: sha256WithRSAEncryption
        Issuer: C = NZ, ST = Waikato, L = Hamilton, O = Blue Leaf Software Ltd, CN = Blue Leaf Software CA
        Validity
            Not Before: May 19 18:56:09 2023 GMT
            Not After : May 29 18:56:09 2023 GMT
        Subject: C = NZ, ST = Waikato, L = Hamilton, O = "Blue Leaf Software, Ltd", CN = "Lumos HW, SN = BLS-002"
        Subject Public Key Info:
            Public Key Algorithm: rsaEncryption
                Public-Key: (2048 bit)
                Modulus:
                    00:8e:2c:47:4e:0b:73:cc:e4:24:5b:cc:c5:58:14:
                    cb:0b:4f:80:cf:3b:a5:ef:b7:34:9e:04:00:0a:60:
                    5f:cd:fe:c5:98:f7:d7:66:27:12:57:a2:17:10:8a:
                    b6:50:49:fe:9d:40:59:a3:4f:85:3c:8e:7c:76:a1:
                    e8:2e:34:19:e4:25:8f:de:ff:ed:42:3e:08:c4:e9:
                    24:ad:01:dc:41:85:96:34:2f:38:89:9e:08:a4:c9:
                    90:6d:c3:d7:b3:15:b8:fb:e4:75:ae:66:66:37:75:
                    cd:c2:7d:e4:3d:d2:cd:5e:2f:8d:43:1a:17:b1:1e:
                    ff:9c:ea:74:83:a9:cf:94:23:29:2f:d9:9a:dc:79:
                    df:20:27:cf:62:a1:b6:cf:1e:45:55:2b:a8:9c:49:
                    17:20:c5:c3:fe:5f:b2:d0:fd:0b:50:a7:62:d4:a6:
                    e1:29:f3:94:0a:07:c1:c5:da:a3:f4:38:a3:9b:26:
                    1f:0a:29:89:d4:62:ce:d0:40:ec:fa:79:7f:ac:bf:
                    31:bd:21:92:c5:b1:d2:c2:0c:ef:2f:8c:18:9a:4e:
                    8e:57:da:57:8f:e7:46:4e:d7:ff:ce:04:8e:10:c2:
                    50:22:ae:de:94:ae:d0:42:fb:80:db:75:f4:10:4e:
                    71:84:f0:d9:08:33:1e:fe:0c:a8:60:ee:3a:ed:b1:
                    15:7d
                Exponent: 65537 (0x10001)
        X509v3 extensions:
            X509v3 Basic Constraints: 
                CA:FALSE
            X509v3 Extended Key Usage: 
                TLS Web Server Authentication, TLS Web Client Authentication
            X509v3 Certificate Policies: critical
                Policy: 1.3.6.1.4.1.59430.2.1
                Policy: 1.3.6.1.4.1.59430.2.1.1
                Policy: 1.3.6.1.4.1.59430.2.1.2
            X509v3 Subject Key Identifier: 
                59:AB:AD:48:F6:7D:19:45:44:74:F3:AA:B0:7A:7F:E9:28:C0:E7:4A
            X509v3 Authority Key Identifier: 
                1C:D0:70:E6:15:83:CD:8E:FB:08:71:37:00:05:95:4C:4E:93:82:6B
    Signature Algorithm: sha256WithRSAEncryption
    Signature Value:
        84:1c:67:d3:21:13:17:84:e7:c4:8e:1d:58:7f:49:d3:cc:3a:
        ed:8c:f8:88:6a:22:c8:71:be:ca:54:32:46:72:c0:96:a5:ab:
        ce:9c:f3:2b:e7:a9:f7:e2:66:ff:ae:97:c9:09:b3:9e:61:65:
        8f:6c:db:c3:53:cf:e2:e1:6b:ae:b7:2a:af:e6:b1:24:ac:66:
        23:90:ac:4c:2e:79:72:11:d7:4c:97:21:d3:93:9e:af:e6:1f:
        14:e0:f7:67:7d:19:a5:fc:1e:dc:ab:24:5a:64:af:2f:8f:77:
        b9:3b:51:49:92:39:05:cc:02:cf:cf:07:c2:db:a8:95:da:1c:
        f6:9e:62:ae:0c:10:e8:4d:b1:8e:77:44:6c:55:4d:8c:79:59:
        d8:32:93:6c:4e:90:82:18:e0:47:27:51:95:ff:a9:99:80:76:
        89:64:b7:0c:da:63:7a:73:11:7b:42:5c:7c:c2:1d:55:ec:c8:
        8e:d1:6b:e0:c9:e5:5f:49:ee:0c:d8:70:fc:fe:0d:9e:c9:10:
        59:06:e0:33:9e:8a:b4:77:35:ae:8c:02:20:09:8b:5b:4f:aa:
        59:55:1a:78:0f:ac:c2:37:ef:bf:a6:98:f2:9e:16:68:aa:93:
        11:f2:02:75:cb:c5:20:41:49:ec:96:91:30:15:7b:39:f9:ed:
        83:ad:9a:d1:58:dc:46:00:fb:95:34:81:b2:22:42:19:77:fa:
        8b:74:f7:7a:f0:45:1a:f9:15:0f:b5:22:77:3b:b9:47:db:7f:
        a0:38:59:b1:d0:a2:36:6c:c9:19:f9:ef:98:9a:06:a3:5f:09:
        df:6e:10:dc:b5:e6:1a:b1:a9:88:85:4a:30:ec:09:15:37:ef:
        6a:92:bc:ce:f7:6d:db:d1:6f:0a:66:f5:a8:9e:fc:45:8b:0d:
        f0:c2:60:8c:57:c4:7b:f6:78:43:8c:ec:3f:fe:a7:63:ad:60:
        54:7d:81:15:1b:29:5d:00:e4:51:e5:a1:a6:f4:b9:cf:22:ef:
        49:f1:70:f0:81:95:b2:0f:68:4b:1e:ae:cc:81:03:bc:77:1b:
        85:31:c1:bc:63:0d:ae:0a:a0:58:3f:cd:f6:b5:46:f3:5a:bc:
        c5:3f:dc:e9:da:92:eb:9c:42:ff:84:c9:35:31:66:b9:65:35:
        03:f0:82:f5:a7:8b:ad:ad:27:b7:79:eb:24:d2:d6:b8:c3:e3:
        2d:fc:10:92:a0:7b:bf:38:be:37:de:b9:87:9b:0d:8a:51:ca:
        6a:f4:92:91:63:73:d0:5b:c9:7f:2f:84:68:58:4f:36:5f:70:
        59:3b:9e:c2:81:16:89:78:89:82:ac:22:da:fb:25:70:46:57:
        23:15:40:f3:19:79:fe:40
-----BEGIN CERTIFICATE-----
MIIFHjCCAwagAwIBAgIUNbTDR6G9kct4hBk8eQT/2g/l9LowDQYJKoZIhvcNAQEL
BQAwczELMAkGA1UEBhMCTloxEDAOBgNVBAgMB1dhaWthdG8xETAPBgNVBAcMCEhh
bWlsdG9uMR8wHQYDVQQKDBZCbHVlIExlYWYgU29mdHdhcmUgTHRkMR4wHAYDVQQD
DBVCbHVlIExlYWYgU29mdHdhcmUgQ0EwHhcNMjMwNTE5MTg1NjA5WhcNMjMwNTI5
MTg1NjA5WjB1MQswCQYDVQQGEwJOWjEQMA4GA1UECAwHV2Fpa2F0bzERMA8GA1UE
BwwISGFtaWx0b24xIDAeBgNVBAoMF0JsdWUgTGVhZiBTb2Z0d2FyZSwgTHRkMR8w
HQYDVQQDDBZMdW1vcyBIVywgU04gPSBCTFMtMDAyMIIBIjANBgkqhkiG9w0BAQEF
AAOCAQ8AMIIBCgKCAQEAjixHTgtzzOQkW8zFWBTLC0+Azzul77c0ngQACmBfzf7F
mPfXZicSV6IXEIq2UEn+nUBZo0+FPI58dqHoLjQZ5CWP3v/tQj4IxOkkrQHcQYWW
NC84iZ4IpMmQbcPXsxW4++R1rmZmN3XNwn3kPdLNXi+NQxoXsR7/nOp0g6nPlCMp
L9ma3HnfICfPYqG2zx5FVSuonEkXIMXD/l+y0P0LUKdi1KbhKfOUCgfBxdqj9Dij
myYfCimJ1GLO0EDs+nl/rL8xvSGSxbHSwgzvL4wYmk6OV9pXj+dGTtf/zgSOEMJQ
Iq7elK7QQvuA23X0EE5xhPDZCDMe/gyoYO467bEVfQIDAQABo4GnMIGkMAkGA1Ud
EwQCMAAwHQYDVR0lBBYwFAYIKwYBBQUHAwEGCCsGAQUFBwMCMDgGA1UdIAEB/wQu
MCwwDAYKKwYBBAGD0CYCATANBgsrBgEEAYPQJgIBATANBgsrBgEEAYPQJgIBAjAd
BgNVHQ4EFgQUWautSPZ9GUVEdPOqsHp/6SjA50owHwYDVR0jBBgwFoAUHNBw5hWD
zY77CHE3AAWVTE6TgmswDQYJKoZIhvcNAQELBQADggIBAIQcZ9MhExeE58SOHVh/
SdPMOu2M+IhqIshxvspUMkZywJalq86c8yvnqffiZv+ul8kJs55hZY9s28NTz+Lh
a663Kq/msSSsZiOQrEwueXIR10yXIdOTnq/mHxTg92d9GaX8HtyrJFpkry+Pd7k7
UUmSOQXMAs/PB8LbqJXaHPaeYq4MEOhNsY53RGxVTYx5Wdgyk2xOkIIY4EcnUZX/
qZmAdolktwzaY3pzEXtCXHzCHVXsyI7Ra+DJ5V9J7gzYcPz+DZ7JEFkG4DOeirR3
Na6MAiAJi1tPqllVGngPrMI377+mmPKeFmiqkxHyAnXLxSBBSeyWkTAVezn57YOt
mtFY3EYA+5U0gbIiQhl3+ot093rwRRr5FQ+1Inc7uUfbf6A4WbHQojZsyRn575ia
BqNfCd9uENy15hqxqYiFSjDsCRU372qSvM73bdvRbwpm9aie/EWLDfDCYIxXxHv2
eEOM7D/+p2OtYFR9gRUbKV0A5FHloab0uc8i70nxcPCBlbIPaEsersyBA7x3G4Ux
wbxjDa4KoFg/zfa1RvNavMU/3OnakuucQv+EyTUxZrllNQPwgvWni62tJ7d56yTS
1rjD4y38EJKge784vjfeuYebDYpRymr0kpFjc9BbyX8vhGhYTzZfcFk7nsKBFol4
iYKsItr7JXBGVyMVQPMZef5A
-----END CERTIFICATE-----
