Certificate:
    Data:
        Version: 3 (0x2)
        Serial Number:
            37:28:16:b0:0f:3f:04:7e:29:05:f6:4f:06:c4:1b:cb:b0:b7:93:8a
        Signature Algorithm: sha256WithRSAEncryption
        Issuer: C = NZ, ST = Waikato, L = Hamilton, O = Blue Leaf Software Ltd, CN = Blue Leaf Software CA
        Validity
            Not Before: Apr 25 09:30:00 2023 GMT
            Not After : May  5 09:30:00 2023 GMT
        Subject: C = NZ, ST = Waikato, L = Hamilton, O = "Blue Leaf Software, Ltd", CN = "Lumos HW, serialNumber = BLS-002"
        Subject Public Key Info:
            Public Key Algorithm: rsaEncryption
                Public-Key: (512 bit)
                Modulus:
                    00:91:b9:b4:05:95:98:37:16:56:d8:eb:ae:7e:0d:
                    46:1e:78:ff:06:50:3d:5d:53:60:e0:f1:fd:94:78:
                    c8:73:52:17:a5:86:5e:a0:3d:5d:c8:69:b3:27:b5:
                    6f:36:a9:d4:35:c5:0b:73:f3:36:ed:a2:79:16:4c:
                    1f:7c:34:4a:e5
                Exponent: 65537 (0x10001)
        X509v3 extensions:
            X509v3 Basic Constraints: 
                CA:FALSE
            X509v3 Extended Key Usage: 
                TLS Web Server Authentication, TLS Web Client Authentication
            X509v3 Certificate Policies: critical
                Policy: 1.3.6.1.4.1.59430.2.1
                Policy: 1.3.6.1.4.1.59430.2.1.1
                Policy: 1.3.6.1.4.1.59430.2.1.2
            X509v3 Subject Key Identifier: 
                C2:0E:52:69:0A:83:BD:50:C0:F0:12:18:26:DE:E3:36:47:71:82:64
            X509v3 Authority Key Identifier: 
                1C:D0:70:E6:15:83:CD:8E:FB:08:71:37:00:05:95:4C:4E:93:82:6B
    Signature Algorithm: sha256WithRSAEncryption
    Signature Value:
        39:25:ec:de:83:bc:ee:cc:5e:22:df:2e:a3:48:2d:43:d4:c9:
        08:48:bb:2a:25:cc:a8:51:d8:a0:16:f1:2d:c2:ce:34:9c:5b:
        0d:d7:a6:b6:00:8c:14:3e:21:e4:5e:c0:3e:82:f4:16:8a:d3:
        54:24:49:7a:80:de:85:66:be:2d:8f:d5:55:55:95:e1:be:86:
        3c:75:ef:50:8c:ee:a3:27:5f:5f:08:fb:20:22:e3:7d:20:62:
        f7:17:41:93:f2:e2:49:35:93:16:78:d5:61:b2:67:b0:a7:44:
        1c:46:81:8f:e2:bd:63:ac:5d:3a:76:d5:b4:a6:31:05:12:21:
        c0:c5:ee:cc:9b:53:18:0f:2c:cc:d3:cd:ed:2f:4f:a4:c5:e5:
        92:e0:2b:d0:77:a7:3c:45:1c:b3:a0:4b:b2:c3:e2:3b:ec:84:
        88:ee:86:a7:8c:14:1c:1d:7f:e5:e7:c4:ad:01:26:8f:d2:63:
        59:66:5b:8f:44:d7:4d:1f:dd:03:e6:53:52:dc:61:bb:2b:4b:
        05:45:45:f2:45:4b:0b:05:8b:96:3b:29:b0:25:41:d6:a5:4d:
        7c:b6:8a:75:49:a8:c1:45:03:39:22:81:c8:fc:e3:0e:45:8a:
        21:c3:08:c2:2c:4f:2f:51:57:d0:32:dc:5c:8a:53:cf:56:ce:
        bd:d3:4c:2d:fb:b7:81:26:d5:c9:b3:e7:48:d1:26:01:aa:04:
        43:5f:53:25:12:a2:ee:75:5c:c8:67:80:9e:50:e4:1e:9b:35:
        e7:f4:e8:88:bb:ad:a0:6a:d7:f2:b8:71:93:ec:b1:9d:50:3c:
        c1:78:2a:cc:a3:18:4b:16:8f:74:68:41:ad:3d:a1:4b:89:be:
        51:71:5e:62:f2:0d:6f:00:e5:9b:83:9c:f4:18:fc:31:d9:c3:
        b5:9f:08:83:0f:63:9b:09:b4:65:a4:fb:d3:7f:10:ea:cd:7e:
        1a:25:f9:ac:6d:0c:e3:4d:8a:31:7d:cf:5f:f9:50:02:ab:b6:
        0a:76:6f:cb:44:af:bc:35:15:68:d5:52:f2:78:5e:65:41:07:
        12:47:e5:e9:a9:64:4f:02:d6:43:ac:40:16:f8:41:1a:8f:b5:
        24:82:47:65:f6:b3:dc:21:09:44:1e:66:d2:ad:fd:79:fc:06:
        95:97:6b:9f:db:79:c8:ae:ca:91:e4:8b:fb:b0:8e:91:74:35:
        75:5e:f9:3b:1b:91:b7:38:12:fd:71:4f:c9:be:3b:dd:a5:84:
        d9:d4:e9:7f:f0:de:38:f0:82:42:0b:62:9c:c4:0b:4d:9d:5f:
        cf:d4:9f:1e:4f:30:53:ce:dc:37:04:41:c9:27:82:81:12:d5:
        bb:5b:66:1a:7b:a6:6e:66
-----BEGIN CERTIFICATE-----
MIIEYDCCAkigAwIBAgIUNygWsA8/BH4pBfZPBsQby7C3k4owDQYJKoZIhvcNAQEL
BQAwczELMAkGA1UEBhMCTloxEDAOBgNVBAgMB1dhaWthdG8xETAPBgNVBAcMCEhh
bWlsdG9uMR8wHQYDVQQKDBZCbHVlIExlYWYgU29mdHdhcmUgTHRkMR4wHAYDVQQD
DBVCbHVlIExlYWYgU29mdHdhcmUgQ0EwHhcNMjMwNDI1MDkzMDAwWhcNMjMwNTA1
MDkzMDAwWjB/MQswCQYDVQQGEwJOWjEQMA4GA1UECAwHV2Fpa2F0bzERMA8GA1UE
BwwISGFtaWx0b24xIDAeBgNVBAoMF0JsdWUgTGVhZiBTb2Z0d2FyZSwgTHRkMSkw
JwYDVQQDDCBMdW1vcyBIVywgc2VyaWFsTnVtYmVyID0gQkxTLTAwMjBcMA0GCSqG
SIb3DQEBAQUAA0sAMEgCQQCRubQFlZg3FlbY665+DUYeeP8GUD1dU2Dg8f2UeMhz
Uhelhl6gPV3IabMntW82qdQ1xQtz8zbtonkWTB98NErlAgMBAAGjgacwgaQwCQYD
VR0TBAIwADAdBgNVHSUEFjAUBggrBgEFBQcDAQYIKwYBBQUHAwIwOAYDVR0gAQH/
BC4wLDAMBgorBgEEAYPQJgIBMA0GCysGAQQBg9AmAgEBMA0GCysGAQQBg9AmAgEC
MB0GA1UdDgQWBBTCDlJpCoO9UMDwEhgm3uM2R3GCZDAfBgNVHSMEGDAWgBQc0HDm
FYPNjvsIcTcABZVMTpOCazANBgkqhkiG9w0BAQsFAAOCAgEAOSXs3oO87sxeIt8u
o0gtQ9TJCEi7KiXMqFHYoBbxLcLONJxbDdemtgCMFD4h5F7APoL0ForTVCRJeoDe
hWa+LY/VVVWV4b6GPHXvUIzuoydfXwj7ICLjfSBi9xdBk/LiSTWTFnjVYbJnsKdE
HEaBj+K9Y6xdOnbVtKYxBRIhwMXuzJtTGA8szNPN7S9PpMXlkuAr0HenPEUcs6BL
ssPiO+yEiO6Gp4wUHB1/5efErQEmj9JjWWZbj0TXTR/dA+ZTUtxhuytLBUVF8kVL
CwWLljspsCVB1qVNfLaKdUmowUUDOSKByPzjDkWKIcMIwixPL1FX0DLcXIpTz1bO
vdNMLfu3gSbVybPnSNEmAaoEQ19TJRKi7nVcyGeAnlDkHps15/ToiLutoGrX8rhx
k+yxnVA8wXgqzKMYSxaPdGhBrT2hS4m+UXFeYvINbwDlm4Oc9Bj8MdnDtZ8Igw9j
mwm0ZaT7038Q6s1+GiX5rG0M402KMX3PX/lQAqu2CnZvy0SvvDUVaNVS8nheZUEH
Ekfl6alkTwLWQ6xAFvhBGo+1JIJHZfaz3CEJRB5m0q39efwGlZdrn9t5yK7KkeSL
+7COkXQ1dV75OxuRtzgS/XFPyb473aWE2dTpf/DeOPCCQgtinMQLTZ1fz9SfHk8w
U87cNwRBySeCgRLVu1tmGnumbmY=
-----END CERTIFICATE-----
