Certificate:
    Data:
        Version: 3 (0x2)
        Serial Number:
            05:80:38:82:ce:85:47:57:58:69:8c:30:f8:98:11:a6:c4:56:97:ef
        Signature Algorithm: sha256WithRSAEncryption
        Issuer: C = NZ, ST = Waikato, L = Hamilton, O = Blue Leaf Software Ltd, CN = Blue Leaf Software CA
        Validity
            Not Before: May 10 23:19:08 2023 GMT
            Not After : May 20 23:19:08 2023 GMT
        Subject: C = NZ, ST = Waikato, L = Hamilton, O = "Blue Leaf Software, Ltd", CN = "Lumos HW, SN = BLS-002"
        Subject Public Key Info:
            Public Key Algorithm: rsaEncryption
                Public-Key: (512 bit)
                Modulus:
                    00:d0:a0:31:47:1a:91:4e:65:ae:00:03:4c:9c:83:
                    d6:70:e2:56:3a:73:ac:52:df:db:d8:ec:2c:24:90:
                    af:7e:ce:54:62:d4:80:6e:43:eb:07:2e:c8:90:23:
                    bf:9c:98:79:c9:30:e4:42:02:ba:c4:4d:bc:6c:1d:
                    82:77:ad:13:e9
                Exponent: 65537 (0x10001)
        X509v3 extensions:
            X509v3 Basic Constraints: 
                CA:FALSE
            X509v3 Extended Key Usage: 
                TLS Web Server Authentication, TLS Web Client Authentication
            X509v3 Certificate Policies: critical
                Policy: 1.3.6.1.4.1.59430.2.1
                Policy: 1.3.6.1.4.1.59430.2.1.1
                Policy: 1.3.6.1.4.1.59430.2.1.2
            X509v3 Subject Key Identifier: 
                08:25:C9:1E:99:5C:C5:87:8D:1C:A4:A2:61:C8:B5:A3:C9:ED:00:1B
            X509v3 Authority Key Identifier: 
                1C:D0:70:E6:15:83:CD:8E:FB:08:71:37:00:05:95:4C:4E:93:82:6B
    Signature Algorithm: sha256WithRSAEncryption
    Signature Value:
        b9:f2:0f:60:7a:6e:85:b0:18:b4:ce:db:1c:ea:34:94:b1:4c:
        0b:98:92:71:c9:93:e6:ac:2b:d0:e4:ce:07:f9:08:7e:e2:22:
        b0:2b:ac:4a:68:0a:9b:8b:ec:9c:3f:18:ee:0a:cb:d8:fa:ce:
        fc:55:15:5b:ad:c8:a5:fd:3b:4b:42:b0:c6:78:a4:ac:86:64:
        34:6c:b6:ac:b0:bf:ca:d2:e5:2c:b2:9b:94:94:6e:32:63:f2:
        f8:01:9c:ed:e0:15:64:c3:eb:b3:fb:5e:72:50:3e:59:86:10:
        10:23:22:b0:64:41:a8:eb:d5:14:33:09:05:43:87:29:ee:d3:
        e0:26:e3:26:95:58:18:e4:be:1d:25:1f:4b:f9:0b:7d:ba:42:
        c3:c0:7e:f1:ff:73:bb:01:8c:4a:28:5c:75:ea:87:27:8b:68:
        7c:20:84:48:b1:5a:71:f2:db:30:14:03:d8:5e:f6:69:c8:fe:
        a3:95:5c:6c:fc:d8:df:08:58:0d:d3:c8:5f:51:9d:1a:9b:31:
        4c:84:93:a7:a2:da:9c:c7:e2:d8:95:cd:1d:8b:aa:68:db:f8:
        ac:13:fc:fe:7b:6a:f3:d2:76:5c:1a:df:e2:79:d3:34:38:6e:
        3b:09:e5:47:c5:d1:c9:0e:f1:6a:86:81:7e:41:9f:f4:7d:8b:
        ae:92:75:6b:68:12:9f:fe:de:a6:47:99:3b:59:be:e9:d3:31:
        b3:3f:89:34:0e:1f:3e:51:8b:58:a1:97:c9:36:bf:0c:63:5c:
        2c:22:82:b9:0a:aa:80:ed:f1:e8:b6:80:4c:22:fa:84:86:44:
        4e:7b:92:7f:35:0a:77:07:45:1b:64:f3:43:72:a3:7e:7b:6f:
        30:74:4b:cd:71:85:fc:d7:88:b5:67:44:32:ec:e1:87:98:09:
        7b:41:d4:f8:25:26:69:1a:ba:c3:d0:f0:ee:34:df:20:2b:c3:
        55:7f:6b:2b:32:57:cd:11:1f:2d:76:e4:63:7d:ff:07:a9:f5:
        0b:85:13:b4:e4:27:00:0a:32:b5:bb:bc:59:4b:16:c2:c4:8c:
        67:de:8e:45:2c:fc:b9:25:f2:13:f4:fe:79:1e:dc:c5:9b:17:
        02:2e:80:31:6c:c2:bd:fe:8f:cc:7b:8c:56:19:dc:0a:13:ce:
        cd:f7:d2:19:c1:be:72:4d:5d:87:c7:ea:b4:54:94:bc:56:c0:
        d8:7d:49:c5:e1:85:b1:47:3f:17:75:02:3c:71:77:63:70:7c:
        96:24:c4:c9:71:39:e7:5f:0c:e8:98:cc:24:90:38:48:fc:ac:
        9c:c2:e7:20:eb:8c:70:79:ea:6c:92:12:6d:10:3a:dc:17:86:
        ba:32:5f:c0:fc:f7:91:96
-----BEGIN CERTIFICATE-----
MIIEVjCCAj6gAwIBAgIUBYA4gs6FR1dYaYww+JgRpsRWl+8wDQYJKoZIhvcNAQEL
BQAwczELMAkGA1UEBhMCTloxEDAOBgNVBAgMB1dhaWthdG8xETAPBgNVBAcMCEhh
bWlsdG9uMR8wHQYDVQQKDBZCbHVlIExlYWYgU29mdHdhcmUgTHRkMR4wHAYDVQQD
DBVCbHVlIExlYWYgU29mdHdhcmUgQ0EwHhcNMjMwNTEwMjMxOTA4WhcNMjMwNTIw
MjMxOTA4WjB1MQswCQYDVQQGEwJOWjEQMA4GA1UECAwHV2Fpa2F0bzERMA8GA1UE
BwwISGFtaWx0b24xIDAeBgNVBAoMF0JsdWUgTGVhZiBTb2Z0d2FyZSwgTHRkMR8w
HQYDVQQDDBZMdW1vcyBIVywgU04gPSBCTFMtMDAyMFwwDQYJKoZIhvcNAQEBBQAD
SwAwSAJBANCgMUcakU5lrgADTJyD1nDiVjpzrFLf29jsLCSQr37OVGLUgG5D6wcu
yJAjv5yYeckw5EICusRNvGwdgnetE+kCAwEAAaOBpzCBpDAJBgNVHRMEAjAAMB0G
A1UdJQQWMBQGCCsGAQUFBwMBBggrBgEFBQcDAjA4BgNVHSABAf8ELjAsMAwGCisG
AQQBg9AmAgEwDQYLKwYBBAGD0CYCAQEwDQYLKwYBBAGD0CYCAQIwHQYDVR0OBBYE
FAglyR6ZXMWHjRykomHItaPJ7QAbMB8GA1UdIwQYMBaAFBzQcOYVg82O+whxNwAF
lUxOk4JrMA0GCSqGSIb3DQEBCwUAA4ICAQC58g9gem6FsBi0ztsc6jSUsUwLmJJx
yZPmrCvQ5M4H+Qh+4iKwK6xKaAqbi+ycPxjuCsvY+s78VRVbrcil/TtLQrDGeKSs
hmQ0bLassL/K0uUsspuUlG4yY/L4AZzt4BVkw+uz+15yUD5ZhhAQIyKwZEGo69UU
MwkFQ4cp7tPgJuMmlVgY5L4dJR9L+Qt9ukLDwH7x/3O7AYxKKFx16ocni2h8IIRI
sVpx8tswFAPYXvZpyP6jlVxs/NjfCFgN08hfUZ0amzFMhJOnotqcx+LYlc0di6po
2/isE/z+e2rz0nZcGt/iedM0OG47CeVHxdHJDvFqhoF+QZ/0fYuuknVraBKf/t6m
R5k7Wb7p0zGzP4k0Dh8+UYtYoZfJNr8MY1wsIoK5CqqA7fHotoBMIvqEhkROe5J/
NQp3B0UbZPNDcqN+e28wdEvNcYX814i1Z0Qy7OGHmAl7QdT4JSZpGrrD0PDuNN8g
K8NVf2srMlfNER8tduRjff8HqfULhRO05CcACjK1u7xZSxbCxIxn3o5FLPy5JfIT
9P55HtzFmxcCLoAxbMK9/o/Me4xWGdwKE87N99IZwb5yTV2Hx+q0VJS8VsDYfUnF
4YWxRz8XdQI8cXdjcHyWJMTJcTnnXwzomMwkkDhI/Kycwucg64xweepskhJtEDrc
F4a6Ml/A/PeRlg==
-----END CERTIFICATE-----
