Certificate:
    Data:
        Version: 3 (0x2)
        Serial Number:
            19:16:f7:52:0d:4e:f2:36:0f:e8:3e:dc:52:12:5f:9e:d8:7c:a4:2a
        Signature Algorithm: sha256WithRSAEncryption
        Issuer: C = NZ, ST = Waikato, L = Hamilton, O = Blue Leaf Software Ltd, CN = Blue Leaf Software CA
        Validity
            Not Before: Apr 30 15:04:04 2023 GMT
            Not After : May 10 15:04:04 2023 GMT
        Subject: C = NZ, ST = Waikato, L = Hamilton, O = "Blue Leaf Software, Ltd", CN = "Lumos HW, serialNumber = BLS-002"
        Subject Public Key Info:
            Public Key Algorithm: rsaEncryption
                Public-Key: (512 bit)
                Modulus:
                    00:c1:71:fa:d8:be:f1:90:26:e9:bd:f3:8d:85:65:
                    c6:c8:51:98:bd:d1:cd:d0:bc:63:47:2e:49:26:a6:
                    0e:b5:c6:71:c9:89:8e:8e:e5:e2:cd:69:c9:61:b8:
                    0d:2a:f1:05:df:94:7c:d8:4e:6f:df:e7:f2:1a:55:
                    f6:f6:92:fd:4d
                Exponent: 65537 (0x10001)
        X509v3 extensions:
            X509v3 Basic Constraints: 
                CA:FALSE
            X509v3 Extended Key Usage: 
                TLS Web Server Authentication, TLS Web Client Authentication
            X509v3 Certificate Policies: critical
                Policy: 1.3.6.1.4.1.59430.2.1
                Policy: 1.3.6.1.4.1.59430.2.1.1
                Policy: 1.3.6.1.4.1.59430.2.1.2
            X509v3 Subject Key Identifier: 
                C0:08:26:7E:3F:0E:F8:63:AF:4E:E4:9B:D0:B6:E0:77:6A:87:40:D0
            X509v3 Authority Key Identifier: 
                1C:D0:70:E6:15:83:CD:8E:FB:08:71:37:00:05:95:4C:4E:93:82:6B
    Signature Algorithm: sha256WithRSAEncryption
    Signature Value:
        21:52:a3:93:2a:e8:15:5d:56:51:9a:6b:37:e8:f7:0f:7b:e7:
        54:10:42:20:a0:ac:ea:b5:14:87:42:d1:62:17:63:d2:19:96:
        9b:28:87:63:3e:d0:e5:de:02:8f:34:52:1e:3b:bb:f5:2e:65:
        05:cc:4b:f1:2e:62:92:c6:e8:50:08:dd:9e:ab:90:c1:eb:57:
        75:2f:ab:41:23:e4:f3:7b:91:f4:e2:1a:ef:f7:56:43:7f:5e:
        50:16:ee:82:6c:28:35:e8:6a:1d:25:e9:da:80:ff:67:91:e7:
        59:37:cd:3c:f2:ab:74:af:73:3f:5d:47:81:e3:75:14:55:03:
        02:ad:64:34:5e:f7:d7:ff:57:aa:22:a4:1f:d2:5c:d8:b8:aa:
        91:10:14:95:ae:1b:d0:27:0e:15:30:03:3b:9b:96:fb:68:aa:
        e1:49:5b:06:00:3d:c5:05:43:44:24:ea:41:f4:1d:57:ef:e2:
        ca:24:6b:ad:3d:26:71:e3:40:ff:f8:13:91:d8:5a:8b:eb:c6:
        ae:f4:f1:c6:cd:d6:06:52:fb:e5:a0:cf:6e:f4:34:2d:e0:3b:
        87:58:9e:22:7b:f1:a0:56:02:cc:69:bc:f0:b0:6c:07:b7:e5:
        f9:87:63:be:4b:fe:51:31:b6:d1:91:d9:cb:45:ed:16:9d:33:
        7b:d7:44:07:0b:f5:85:11:66:ea:f8:aa:5b:83:70:1a:17:e6:
        b5:69:4f:8c:d9:04:c8:24:e3:0e:35:eb:42:d7:53:d3:d3:7d:
        bd:6f:1c:d4:57:70:0f:f3:05:54:44:9f:99:a8:d5:a2:55:59:
        79:d5:fb:a9:43:a1:14:2d:12:74:30:22:62:ec:59:a8:33:60:
        53:ea:f1:ed:77:bb:31:61:e7:19:10:e8:4c:30:06:39:5a:38:
        15:b1:98:c6:c5:33:5d:7c:97:da:2b:a0:83:11:6b:59:dd:ee:
        37:1e:bd:31:d3:06:cf:b9:06:ac:b8:60:35:a0:f4:e0:12:c1:
        6f:38:5a:51:be:a9:8b:3f:a5:2d:2d:8d:90:f2:e2:37:e9:4f:
        87:77:51:16:e4:41:6a:ca:cd:1e:d9:e2:0a:c4:9d:b0:cd:fc:
        42:ec:f2:36:4e:5a:5f:ab:3d:5e:16:fe:0f:d8:d4:f1:c3:cd:
        a0:63:57:bc:c0:6e:ca:21:9d:d8:d3:96:52:33:cd:b5:5f:6d:
        a7:82:cc:1f:6e:f5:28:7d:b1:51:9e:d1:e4:1d:36:cd:f4:26:
        34:ae:45:a4:09:5f:33:a7:c7:51:06:cf:56:bb:94:a3:fc:aa:
        43:53:89:f3:9d:62:23:a9:ec:fd:53:68:43:fe:31:64:a1:23:
        ea:61:c8:69:df:c9:4e:74
-----BEGIN CERTIFICATE-----
MIIEYDCCAkigAwIBAgIUGRb3Ug1O8jYP6D7cUhJfnth8pCowDQYJKoZIhvcNAQEL
BQAwczELMAkGA1UEBhMCTloxEDAOBgNVBAgMB1dhaWthdG8xETAPBgNVBAcMCEhh
bWlsdG9uMR8wHQYDVQQKDBZCbHVlIExlYWYgU29mdHdhcmUgTHRkMR4wHAYDVQQD
DBVCbHVlIExlYWYgU29mdHdhcmUgQ0EwHhcNMjMwNDMwMTUwNDA0WhcNMjMwNTEw
MTUwNDA0WjB/MQswCQYDVQQGEwJOWjEQMA4GA1UECAwHV2Fpa2F0bzERMA8GA1UE
BwwISGFtaWx0b24xIDAeBgNVBAoMF0JsdWUgTGVhZiBTb2Z0d2FyZSwgTHRkMSkw
JwYDVQQDDCBMdW1vcyBIVywgc2VyaWFsTnVtYmVyID0gQkxTLTAwMjBcMA0GCSqG
SIb3DQEBAQUAA0sAMEgCQQDBcfrYvvGQJum9842FZcbIUZi90c3QvGNHLkkmpg61
xnHJiY6O5eLNaclhuA0q8QXflHzYTm/f5/IaVfb2kv1NAgMBAAGjgacwgaQwCQYD
VR0TBAIwADAdBgNVHSUEFjAUBggrBgEFBQcDAQYIKwYBBQUHAwIwOAYDVR0gAQH/
BC4wLDAMBgorBgEEAYPQJgIBMA0GCysGAQQBg9AmAgEBMA0GCysGAQQBg9AmAgEC
MB0GA1UdDgQWBBTACCZ+Pw74Y69O5JvQtuB3aodA0DAfBgNVHSMEGDAWgBQc0HDm
FYPNjvsIcTcABZVMTpOCazANBgkqhkiG9w0BAQsFAAOCAgEAIVKjkyroFV1WUZpr
N+j3D3vnVBBCIKCs6rUUh0LRYhdj0hmWmyiHYz7Q5d4CjzRSHju79S5lBcxL8S5i
ksboUAjdnquQwetXdS+rQSPk83uR9OIa7/dWQ39eUBbugmwoNehqHSXp2oD/Z5Hn
WTfNPPKrdK9zP11HgeN1FFUDAq1kNF731/9XqiKkH9Jc2LiqkRAUla4b0CcOFTAD
O5uW+2iq4UlbBgA9xQVDRCTqQfQdV+/iyiRrrT0mceNA//gTkdhai+vGrvTxxs3W
BlL75aDPbvQ0LeA7h1ieInvxoFYCzGm88LBsB7fl+Ydjvkv+UTG20ZHZy0XtFp0z
e9dEBwv1hRFm6viqW4NwGhfmtWlPjNkEyCTjDjXrQtdT09N9vW8c1FdwD/MFVESf
majVolVZedX7qUOhFC0SdDAiYuxZqDNgU+rx7Xe7MWHnGRDoTDAGOVo4FbGYxsUz
XXyX2iuggxFrWd3uNx69MdMGz7kGrLhgNaD04BLBbzhaUb6piz+lLS2NkPLiN+lP
h3dRFuRBasrNHtniCsSdsM38QuzyNk5aX6s9Xhb+D9jU8cPNoGNXvMBuyiGd2NOW
UjPNtV9tp4LMH271KH2xUZ7R5B02zfQmNK5FpAlfM6fHUQbPVruUo/yqQ1OJ851i
I6ns/VNoQ/4xZKEj6mHIad/JTnQ=
-----END CERTIFICATE-----
