Certificate:
    Data:
        Version: 3 (0x2)
        Serial Number:
            26:1e:6e:ab:ff:0c:67:fa:44:12:c9:f4:6b:c2:2f:0e:b3:ee:56:72
        Signature Algorithm: sha256WithRSAEncryption
        Issuer: C = NZ, ST = Waikato, L = Hamilton, O = Blue Leaf Software Ltd, CN = Blue Leaf Software CA
        Validity
            Not Before: Apr 25 18:24:58 2023 GMT
            Not After : May  5 18:24:58 2023 GMT
        Subject: C = NZ, ST = Waikato, L = Hamilton, O = "Blue Leaf Software, Ltd", CN = "Lumos HW, serialNumber = BLS-002"
        Subject Public Key Info:
            Public Key Algorithm: rsaEncryption
                Public-Key: (512 bit)
                Modulus:
                    00:c1:b6:95:7f:e0:63:45:a2:f2:1a:1f:78:82:4c:
                    db:b9:3e:bb:33:2e:91:7a:75:ba:13:a2:f1:60:1e:
                    89:13:8c:6c:fc:21:0f:2f:25:4e:a2:6a:af:4a:ea:
                    b9:bf:8c:f9:cf:fe:4b:cd:80:31:74:f3:85:3e:b4:
                    48:10:5b:a4:cb
                Exponent: 65537 (0x10001)
        X509v3 extensions:
            X509v3 Basic Constraints: 
                CA:FALSE
            X509v3 Extended Key Usage: 
                TLS Web Server Authentication, TLS Web Client Authentication
            X509v3 Certificate Policies: critical
                Policy: 1.3.6.1.4.1.59430.2.1
                Policy: 1.3.6.1.4.1.59430.2.1.1
                Policy: 1.3.6.1.4.1.59430.2.1.2
            X509v3 Subject Key Identifier: 
                D5:BD:A0:A2:60:0C:A9:33:6C:3E:77:A8:0E:91:56:EB:89:0A:1B:31
            X509v3 Authority Key Identifier: 
                1C:D0:70:E6:15:83:CD:8E:FB:08:71:37:00:05:95:4C:4E:93:82:6B
    Signature Algorithm: sha256WithRSAEncryption
    Signature Value:
        51:6b:79:b7:de:b7:a7:4b:e0:3e:d6:ec:17:2e:73:fc:bb:12:
        3e:81:73:a9:e2:53:6c:e3:cf:11:9a:d2:0d:ce:79:bf:c7:58:
        8b:44:4a:4d:3f:58:99:a7:b0:07:6d:24:d0:df:c7:c2:f8:d2:
        f5:76:94:74:d9:74:1f:a9:e7:f6:18:18:32:f6:b5:69:25:70:
        15:25:54:52:56:c3:ec:b3:f5:81:6c:5f:fa:a2:1c:e1:bd:27:
        f8:e2:5b:8b:63:ba:01:71:bb:57:cb:aa:af:4e:42:34:0d:55:
        be:e1:b0:5a:33:35:ca:78:29:6b:31:d5:74:46:68:89:57:f5:
        6f:78:b3:a8:56:e2:5a:d2:06:1d:d0:fc:39:8e:56:2b:61:a5:
        28:c4:43:83:b9:5b:2c:97:4a:38:c5:fc:54:b0:6e:ef:86:60:
        b8:61:a7:77:ff:2b:fb:16:33:f4:c8:d1:14:82:f5:11:36:3b:
        d0:42:e2:3b:c6:b1:2e:98:58:75:01:bc:14:06:c0:78:cc:61:
        6a:43:dc:46:b0:83:eb:a8:f7:ac:02:4b:49:03:ac:c2:35:5a:
        02:ef:60:1d:ef:fc:d2:33:77:6a:40:0f:16:9d:6d:72:35:65:
        cb:c0:da:4a:cd:91:05:72:e0:ad:25:24:6a:bc:9d:65:78:ed:
        53:da:e6:f1:63:e3:4a:e0:92:81:f4:9e:43:cc:52:6d:bb:dc:
        d3:24:01:8f:a1:c5:f7:be:c4:f3:1c:b6:26:e2:3e:7c:2d:a5:
        23:a9:56:73:53:37:58:b0:51:66:55:f5:db:f4:84:69:9f:64:
        c8:d0:8d:f4:df:a9:fd:29:8f:46:d5:51:51:5d:89:2d:67:d8:
        bf:12:5e:1c:57:f8:a7:14:3b:8e:31:51:42:48:01:21:12:6c:
        cc:90:0b:0d:4b:18:e9:76:6e:a0:ca:ad:81:30:f0:c5:ee:7b:
        19:cd:d2:e1:a6:5f:82:33:e3:ce:cb:bd:13:d7:01:fd:76:70:
        8f:2e:9a:d5:41:1a:b8:de:ca:d2:23:76:46:26:5b:20:6c:d4:
        c5:49:fb:1d:58:87:e8:2b:97:c6:dc:ed:65:dc:c7:c5:b7:aa:
        55:c1:e6:a5:5c:db:d4:39:60:3a:9a:18:3e:73:16:1d:8f:4f:
        20:a2:18:3e:d9:c6:c0:6a:2f:e7:02:13:02:29:93:f2:50:92:
        3e:8e:d7:9f:41:2c:d1:00:1e:96:93:b5:32:a8:77:d6:10:4f:
        5c:bb:3a:14:1c:15:32:65:80:6e:01:cb:a4:3a:cb:99:02:7a:
        88:ea:ed:fb:ba:ea:84:d3:b3:06:e4:d7:ea:c0:4d:29:59:1c:
        af:5b:08:35:b3:2e:97:5d
-----BEGIN CERTIFICATE-----
MIIEYDCCAkigAwIBAgIUJh5uq/8MZ/pEEsn0a8IvDrPuVnIwDQYJKoZIhvcNAQEL
BQAwczELMAkGA1UEBhMCTloxEDAOBgNVBAgMB1dhaWthdG8xETAPBgNVBAcMCEhh
bWlsdG9uMR8wHQYDVQQKDBZCbHVlIExlYWYgU29mdHdhcmUgTHRkMR4wHAYDVQQD
DBVCbHVlIExlYWYgU29mdHdhcmUgQ0EwHhcNMjMwNDI1MTgyNDU4WhcNMjMwNTA1
MTgyNDU4WjB/MQswCQYDVQQGEwJOWjEQMA4GA1UECAwHV2Fpa2F0bzERMA8GA1UE
BwwISGFtaWx0b24xIDAeBgNVBAoMF0JsdWUgTGVhZiBTb2Z0d2FyZSwgTHRkMSkw
JwYDVQQDDCBMdW1vcyBIVywgc2VyaWFsTnVtYmVyID0gQkxTLTAwMjBcMA0GCSqG
SIb3DQEBAQUAA0sAMEgCQQDBtpV/4GNFovIaH3iCTNu5PrszLpF6dboTovFgHokT
jGz8IQ8vJU6iaq9K6rm/jPnP/kvNgDF084U+tEgQW6TLAgMBAAGjgacwgaQwCQYD
VR0TBAIwADAdBgNVHSUEFjAUBggrBgEFBQcDAQYIKwYBBQUHAwIwOAYDVR0gAQH/
BC4wLDAMBgorBgEEAYPQJgIBMA0GCysGAQQBg9AmAgEBMA0GCysGAQQBg9AmAgEC
MB0GA1UdDgQWBBTVvaCiYAypM2w+d6gOkVbriQobMTAfBgNVHSMEGDAWgBQc0HDm
FYPNjvsIcTcABZVMTpOCazANBgkqhkiG9w0BAQsFAAOCAgEAUWt5t963p0vgPtbs
Fy5z/LsSPoFzqeJTbOPPEZrSDc55v8dYi0RKTT9YmaewB20k0N/HwvjS9XaUdNl0
H6nn9hgYMva1aSVwFSVUUlbD7LP1gWxf+qIc4b0n+OJbi2O6AXG7V8uqr05CNA1V
vuGwWjM1yngpazHVdEZoiVf1b3izqFbiWtIGHdD8OY5WK2GlKMRDg7lbLJdKOMX8
VLBu74ZguGGnd/8r+xYz9MjRFIL1ETY70ELiO8axLphYdQG8FAbAeMxhakPcRrCD
66j3rAJLSQOswjVaAu9gHe/80jN3akAPFp1tcjVly8DaSs2RBXLgrSUkarydZXjt
U9rm8WPjSuCSgfSeQ8xSbbvc0yQBj6HF977E8xy2JuI+fC2lI6lWc1M3WLBRZlX1
2/SEaZ9kyNCN9N+p/SmPRtVRUV2JLWfYvxJeHFf4pxQ7jjFRQkgBIRJszJALDUsY
6XZuoMqtgTDwxe57Gc3S4aZfgjPjzsu9E9cB/XZwjy6a1UEauN7K0iN2RiZbIGzU
xUn7HViH6CuXxtztZdzHxbeqVcHmpVzb1DlgOpoYPnMWHY9PIKIYPtnGwGov5wIT
AimT8lCSPo7Xn0Es0QAelpO1Mqh31hBPXLs6FBwVMmWAbgHLpDrLmQJ6iOrt+7rq
hNOzBuTX6sBNKVkcr1sINbMul10=
-----END CERTIFICATE-----
