Certificate:
    Data:
        Version: 3 (0x2)
        Serial Number:
            27:2b:d2:e0:57:51:d0:7d:56:97:ee:6b:5c:59:a6:76:e4:d3:2c:c1
        Signature Algorithm: sha256WithRSAEncryption
        Issuer: C = NZ, ST = Waikato, L = Hamilton, O = Blue Leaf Software Ltd, CN = Blue Leaf Software CA
        Validity
            Not Before: Apr 20 16:47:45 2023 GMT
            Not After : Apr 30 16:47:45 2023 GMT
        Subject: C = NZ, ST = Waikato, L = Hamilton, O = "Blue Leaf Software, Ltd", CN = "Lumos HW, serialNumber = BLS-002"
        Subject Public Key Info:
            Public Key Algorithm: rsaEncryption
                Public-Key: (2048 bit)
                Modulus:
                    00:bf:1f:cd:9b:1d:4d:29:7c:3a:45:c1:ec:85:d0:
                    7f:df:37:44:1a:0b:6a:d3:19:eb:d1:25:3c:6d:45:
                    ac:25:80:e7:05:71:e9:95:a2:41:6d:2a:f0:75:39:
                    53:5d:ba:06:3a:71:00:e6:00:42:8c:78:ec:24:5a:
                    51:9b:69:0f:26:87:a0:bf:04:df:39:ad:da:fa:e8:
                    6f:0c:16:3f:ec:32:bd:08:7b:ce:a4:78:b1:72:32:
                    1e:12:d4:35:c4:b9:53:ad:26:95:d8:ab:40:82:b0:
                    71:37:00:40:46:f2:50:a4:b5:84:a6:fa:81:42:e8:
                    d6:6f:cd:16:16:fc:6a:e3:21:cc:25:6f:7c:b3:0b:
                    5c:20:fa:fb:ba:48:88:19:c8:12:3e:45:f7:97:39:
                    b5:0a:e1:61:1e:21:d9:7c:46:f1:9c:f4:ca:3a:5e:
                    2b:a2:3a:f4:23:37:c6:76:a7:bd:a1:25:72:1d:83:
                    45:fb:ce:f0:be:7c:c8:f9:1c:77:62:26:4e:be:fb:
                    bb:77:1b:ec:d4:c0:1a:ad:4a:ee:76:12:5e:1c:20:
                    5a:71:c7:dd:e1:e3:c6:8b:40:2a:c8:86:45:89:a5:
                    65:a0:7a:f1:8d:8f:c5:4c:49:0d:de:60:e3:12:82:
                    60:cc:f9:11:41:bd:6b:76:c0:82:c2:83:e5:06:2c:
                    46:6f
                Exponent: 65537 (0x10001)
        X509v3 extensions:
            X509v3 Basic Constraints: 
                CA:FALSE
            X509v3 Extended Key Usage: 
                TLS Web Server Authentication, TLS Web Client Authentication
            X509v3 Certificate Policies: critical
                Policy: 1.3.6.1.4.1.59430.2.1
                Policy: 1.3.6.1.4.1.59430.2.1.1
                Policy: 1.3.6.1.4.1.59430.2.1.2
            X509v3 Subject Key Identifier: 
                7C:B6:B7:89:BE:D0:58:6C:16:61:D1:D5:B6:06:D9:24:4F:FF:7E:1E
            X509v3 Authority Key Identifier: 
                1C:D0:70:E6:15:83:CD:8E:FB:08:71:37:00:05:95:4C:4E:93:82:6B
    Signature Algorithm: sha256WithRSAEncryption
    Signature Value:
        a4:f2:9f:86:ea:d8:a4:eb:2e:01:87:cd:28:f4:81:42:b5:3a:
        50:05:85:22:e5:9b:14:3a:12:43:06:46:6b:5c:8f:49:f0:4f:
        c4:42:37:f1:f3:df:39:ba:4f:2c:02:17:69:fe:f7:8d:fb:4e:
        8d:72:1f:ea:28:f6:33:84:e3:52:71:86:19:44:c4:71:5c:72:
        c4:cf:85:a8:a0:35:e0:85:c8:8d:7f:fa:15:8c:8f:79:38:84:
        f2:c2:46:fd:a3:ed:b6:4d:ee:1d:75:0e:26:c6:ed:47:0f:94:
        31:6b:9d:3a:7d:12:0c:cb:74:04:d4:6b:31:93:03:2b:a3:7c:
        be:03:1f:98:89:25:02:52:40:8f:eb:0b:1b:c8:7d:06:5c:ff:
        81:e5:92:4b:2e:6e:f7:b1:9f:f0:a9:b8:c6:cc:2c:74:46:96:
        cb:4e:5d:8f:2b:4b:04:75:9f:da:43:2e:ef:ed:3b:16:69:83:
        f5:d8:3d:04:31:88:9e:0f:bf:97:3d:d9:84:8b:e9:18:57:4d:
        ee:ed:31:4f:4b:d5:32:26:43:ee:a4:be:9f:ba:81:50:ab:c3:
        29:26:81:75:d1:a4:fe:88:ab:b2:ff:c9:2f:4f:ff:1b:73:f4:
        a9:bc:f1:89:3f:ef:c8:1a:18:1d:75:b9:a6:87:3f:0e:f1:ca:
        ff:79:11:fe:b5:c7:c3:b5:8a:86:17:18:a0:05:e1:7b:51:e6:
        a6:d5:76:eb:41:e6:60:36:77:c9:17:86:33:b2:e2:0b:6e:8b:
        37:3f:c1:d6:30:73:32:d8:7a:3b:59:d0:19:43:a5:f1:81:e2:
        a6:01:66:d6:ca:90:4c:06:97:0c:7d:c9:08:d0:8b:27:5b:69:
        4d:4a:f7:1a:79:e0:13:79:ad:90:0a:84:87:ec:da:cf:be:d6:
        fa:cd:c5:93:f1:c2:c0:be:bb:bb:62:53:de:65:f2:43:e4:34:
        ff:4a:2a:21:6a:da:57:37:38:de:41:3a:68:e5:42:e3:6b:10:
        7d:17:f1:b8:7a:22:16:03:38:87:a9:77:88:13:68:9f:93:92:
        32:52:4c:48:60:34:ba:bd:ad:25:3c:e2:7a:5b:0c:e8:ff:cf:
        1e:c0:93:88:2c:81:ea:f6:9e:c9:20:b1:43:d4:46:a2:15:6d:
        dc:65:ab:4a:db:5b:9f:9d:a2:27:18:72:e2:ab:b3:06:33:b9:
        00:11:f2:32:70:c9:26:57:fb:ac:ca:aa:37:7f:40:e1:d8:64:
        39:60:2f:ea:b3:b6:87:b0:0a:f4:17:ac:45:ad:88:c7:96:f2:
        19:ed:81:f9:12:de:5a:6a:57:12:b4:22:20:61:db:58:cf:93:
        5e:80:e2:c6:06:e4:4f:fb
-----BEGIN CERTIFICATE-----
MIIFKDCCAxCgAwIBAgIUJyvS4FdR0H1Wl+5rXFmmduTTLMEwDQYJKoZIhvcNAQEL
BQAwczELMAkGA1UEBhMCTloxEDAOBgNVBAgMB1dhaWthdG8xETAPBgNVBAcMCEhh
bWlsdG9uMR8wHQYDVQQKDBZCbHVlIExlYWYgU29mdHdhcmUgTHRkMR4wHAYDVQQD
DBVCbHVlIExlYWYgU29mdHdhcmUgQ0EwHhcNMjMwNDIwMTY0NzQ1WhcNMjMwNDMw
MTY0NzQ1WjB/MQswCQYDVQQGEwJOWjEQMA4GA1UECAwHV2Fpa2F0bzERMA8GA1UE
BwwISGFtaWx0b24xIDAeBgNVBAoMF0JsdWUgTGVhZiBTb2Z0d2FyZSwgTHRkMSkw
JwYDVQQDDCBMdW1vcyBIVywgc2VyaWFsTnVtYmVyID0gQkxTLTAwMjCCASIwDQYJ
KoZIhvcNAQEBBQADggEPADCCAQoCggEBAL8fzZsdTSl8OkXB7IXQf983RBoLatMZ
69ElPG1FrCWA5wVx6ZWiQW0q8HU5U126BjpxAOYAQox47CRaUZtpDyaHoL8E3zmt
2vrobwwWP+wyvQh7zqR4sXIyHhLUNcS5U60mldirQIKwcTcAQEbyUKS1hKb6gULo
1m/NFhb8auMhzCVvfLMLXCD6+7pIiBnIEj5F95c5tQrhYR4h2XxG8Zz0yjpeK6I6
9CM3xnanvaElch2DRfvO8L58yPkcd2ImTr77u3cb7NTAGq1K7nYSXhwgWnHH3eHj
xotAKsiGRYmlZaB68Y2PxUxJDd5g4xKCYMz5EUG9a3bAgsKD5QYsRm8CAwEAAaOB
pzCBpDAJBgNVHRMEAjAAMB0GA1UdJQQWMBQGCCsGAQUFBwMBBggrBgEFBQcDAjA4
BgNVHSABAf8ELjAsMAwGCisGAQQBg9AmAgEwDQYLKwYBBAGD0CYCAQEwDQYLKwYB
BAGD0CYCAQIwHQYDVR0OBBYEFHy2t4m+0FhsFmHR1bYG2SRP/34eMB8GA1UdIwQY
MBaAFBzQcOYVg82O+whxNwAFlUxOk4JrMA0GCSqGSIb3DQEBCwUAA4ICAQCk8p+G
6tik6y4Bh80o9IFCtTpQBYUi5ZsUOhJDBkZrXI9J8E/EQjfx8985uk8sAhdp/veN
+06Nch/qKPYzhONScYYZRMRxXHLEz4WooDXghciNf/oVjI95OITywkb9o+22Te4d
dQ4mxu1HD5Qxa506fRIMy3QE1GsxkwMro3y+Ax+YiSUCUkCP6wsbyH0GXP+B5ZJL
Lm73sZ/wqbjGzCx0RpbLTl2PK0sEdZ/aQy7v7TsWaYP12D0EMYieD7+XPdmEi+kY
V03u7TFPS9UyJkPupL6fuoFQq8MpJoF10aT+iKuy/8kvT/8bc/SpvPGJP+/IGhgd
dbmmhz8O8cr/eRH+tcfDtYqGFxigBeF7Ueam1XbrQeZgNnfJF4YzsuILbos3P8HW
MHMy2Ho7WdAZQ6XxgeKmAWbWypBMBpcMfckI0IsnW2lNSvcaeeATea2QCoSH7NrP
vtb6zcWT8cLAvru7YlPeZfJD5DT/SiohatpXNzjeQTpo5ULjaxB9F/G4eiIWAziH
qXeIE2ifk5IyUkxIYDS6va0lPOJ6Wwzo/88ewJOILIHq9p7JILFD1EaiFW3cZatK
21ufnaInGHLiq7MGM7kAEfIycMkmV/usyqo3f0Dh2GQ5YC/qs7aHsAr0F6xFrYjH
lvIZ7YH5Et5aalcStCIgYdtYz5NegOLGBuRP+w==
-----END CERTIFICATE-----
