Certificate:
    Data:
        Version: 3 (0x2)
        Serial Number:
            51:1e:b8:14:76:60:9b:db:76:7c:07:80:ec:3f:3d:17:c1:22:56:39
        Signature Algorithm: sha256WithRSAEncryption
        Issuer: C = NZ, ST = Waikato, L = Hamilton, O = Blue Leaf Software Ltd, CN = Blue Leaf Software CA
        Validity
            Not Before: May 19 18:46:14 2023 GMT
            Not After : May 29 18:46:14 2023 GMT
        Subject: C = NZ, ST = Waikato, L = Hamilton, O = "Blue Leaf Software, Ltd", CN = "Lumos HW, SN = BLS-002"
        Subject Public Key Info:
            Public Key Algorithm: rsaEncryption
                Public-Key: (512 bit)
                Modulus:
                    00:b6:4f:ea:a7:db:f2:ae:9d:cd:fa:29:1b:1b:62:
                    2a:15:30:4a:8d:f4:12:c6:01:80:23:df:7c:1c:f1:
                    a9:7d:eb:54:8e:c0:54:88:80:e7:4a:06:1e:66:d7:
                    c6:3c:84:15:16:77:b1:f9:91:1d:7c:65:94:bd:62:
                    4d:ff:8c:e3:59
                Exponent: 65537 (0x10001)
        X509v3 extensions:
            X509v3 Basic Constraints: 
                CA:FALSE
            X509v3 Extended Key Usage: 
                TLS Web Server Authentication, TLS Web Client Authentication
            X509v3 Certificate Policies: critical
                Policy: 1.3.6.1.4.1.59430.2.1
                Policy: 1.3.6.1.4.1.59430.2.1.1
                Policy: 1.3.6.1.4.1.59430.2.1.2
            X509v3 Subject Key Identifier: 
                04:03:2B:01:95:F7:E4:EF:E2:51:41:D8:80:B2:73:F3:AF:F7:0E:EC
            X509v3 Authority Key Identifier: 
                1C:D0:70:E6:15:83:CD:8E:FB:08:71:37:00:05:95:4C:4E:93:82:6B
    Signature Algorithm: sha256WithRSAEncryption
    Signature Value:
        84:98:a9:9b:69:e9:1b:35:4f:8c:73:1a:da:66:71:b8:2f:2d:
        c8:a3:cb:b8:86:82:ff:7b:64:86:39:af:b2:4c:00:a9:bf:c8:
        d8:15:ad:18:3a:91:94:ea:6f:ec:2c:42:b4:06:a2:57:a8:2a:
        1b:8b:4b:fd:67:8f:d9:7e:41:67:94:14:1c:73:c7:e2:8b:05:
        22:d5:77:5c:2a:1f:63:89:24:12:5f:e3:3e:22:60:d0:22:d7:
        23:d9:99:de:13:f8:d1:8f:b9:d7:c9:45:6c:bc:0f:c6:55:4f:
        86:df:67:27:4e:c1:ac:2a:20:63:17:5d:ba:02:1a:47:4a:b6:
        7e:b4:ff:7c:74:d3:e5:e9:5d:5b:f4:21:5d:69:e7:41:74:3a:
        a5:c7:e8:49:af:1f:8c:53:c2:d6:41:10:57:2b:6b:75:1e:b3:
        91:31:2a:38:67:57:40:26:b4:be:c1:81:02:09:7d:7f:da:1f:
        c3:dc:43:ff:51:76:8a:b8:a6:08:df:8f:25:8c:d6:3e:05:c9:
        9c:8a:6b:73:76:c0:db:81:7a:75:88:17:b4:ca:f4:8d:cd:c7:
        a2:18:be:cc:a8:ee:fb:26:db:0b:12:75:3c:eb:83:9b:88:a9:
        68:f4:ac:ce:b2:d3:a2:e7:08:d0:cb:10:bf:aa:fe:53:e5:48:
        67:85:ff:74:28:79:c0:33:ec:dc:59:2a:02:a2:dc:f4:65:3a:
        97:b0:b9:78:3f:38:11:e8:a1:10:3d:17:1f:95:2f:2c:95:f0:
        6b:e9:47:59:3a:14:af:62:65:87:5b:c9:70:9e:7a:65:52:fb:
        9e:4a:10:c3:f6:ec:2f:43:c4:18:66:6d:c3:5c:2a:c0:f6:26:
        61:34:07:8a:d4:15:a0:63:e8:d8:eb:1f:32:a5:ac:31:6b:69:
        aa:08:d4:dd:05:88:25:b8:26:74:3e:d3:b3:31:3a:1b:85:91:
        0a:64:ab:18:22:f0:c8:4e:70:d1:3b:11:c8:f4:0d:fd:09:15:
        77:60:22:ab:ca:7d:a6:59:35:c2:33:60:31:89:79:5f:4f:c5:
        78:cf:2a:ed:f4:0a:4c:dc:c2:a1:58:df:e3:be:f6:e9:15:e6:
        6c:d5:37:7f:c9:be:bc:86:f2:d6:9e:a3:45:8a:ee:d5:4c:6e:
        d4:53:49:7c:af:b9:c9:cc:63:b9:d0:4e:4c:5e:af:1e:74:a8:
        29:31:c7:7b:bd:26:de:3b:cf:13:55:4d:7f:ad:c8:e8:b7:6c:
        f4:4d:46:5a:be:17:c9:8d:0e:96:18:04:de:40:5c:a9:82:10:
        4b:58:24:17:12:e5:9a:e3:05:77:fb:3f:ec:e7:51:16:62:6c:
        a5:d4:30:86:7e:0f:37:e3
-----BEGIN CERTIFICATE-----
MIIEVjCCAj6gAwIBAgIUUR64FHZgm9t2fAeA7D89F8EiVjkwDQYJKoZIhvcNAQEL
BQAwczELMAkGA1UEBhMCTloxEDAOBgNVBAgMB1dhaWthdG8xETAPBgNVBAcMCEhh
bWlsdG9uMR8wHQYDVQQKDBZCbHVlIExlYWYgU29mdHdhcmUgTHRkMR4wHAYDVQQD
DBVCbHVlIExlYWYgU29mdHdhcmUgQ0EwHhcNMjMwNTE5MTg0NjE0WhcNMjMwNTI5
MTg0NjE0WjB1MQswCQYDVQQGEwJOWjEQMA4GA1UECAwHV2Fpa2F0bzERMA8GA1UE
BwwISGFtaWx0b24xIDAeBgNVBAoMF0JsdWUgTGVhZiBTb2Z0d2FyZSwgTHRkMR8w
HQYDVQQDDBZMdW1vcyBIVywgU04gPSBCTFMtMDAyMFwwDQYJKoZIhvcNAQEBBQAD
SwAwSAJBALZP6qfb8q6dzfopGxtiKhUwSo30EsYBgCPffBzxqX3rVI7AVIiA50oG
HmbXxjyEFRZ3sfmRHXxllL1iTf+M41kCAwEAAaOBpzCBpDAJBgNVHRMEAjAAMB0G
A1UdJQQWMBQGCCsGAQUFBwMBBggrBgEFBQcDAjA4BgNVHSABAf8ELjAsMAwGCisG
AQQBg9AmAgEwDQYLKwYBBAGD0CYCAQEwDQYLKwYBBAGD0CYCAQIwHQYDVR0OBBYE
FAQDKwGV9+Tv4lFB2ICyc/Ov9w7sMB8GA1UdIwQYMBaAFBzQcOYVg82O+whxNwAF
lUxOk4JrMA0GCSqGSIb3DQEBCwUAA4ICAQCEmKmbaekbNU+McxraZnG4Ly3Io8u4
hoL/e2SGOa+yTACpv8jYFa0YOpGU6m/sLEK0BqJXqCobi0v9Z4/ZfkFnlBQcc8fi
iwUi1XdcKh9jiSQSX+M+ImDQItcj2ZneE/jRj7nXyUVsvA/GVU+G32cnTsGsKiBj
F126AhpHSrZ+tP98dNPl6V1b9CFdaedBdDqlx+hJrx+MU8LWQRBXK2t1HrORMSo4
Z1dAJrS+wYECCX1/2h/D3EP/UXaKuKYI348ljNY+BcmcimtzdsDbgXp1iBe0yvSN
zceiGL7MqO77JtsLEnU864ObiKlo9KzOstOi5wjQyxC/qv5T5Uhnhf90KHnAM+zc
WSoCotz0ZTqXsLl4PzgR6KEQPRcflS8slfBr6UdZOhSvYmWHW8lwnnplUvueShDD
9uwvQ8QYZm3DXCrA9iZhNAeK1BWgY+jY6x8ypawxa2mqCNTdBYgluCZ0PtOzMTob
hZEKZKsYIvDITnDROxHI9A39CRV3YCKryn2mWTXCM2AxiXlfT8V4zyrt9ApM3MKh
WN/jvvbpFeZs1Td/yb68hvLWnqNFiu7VTG7UU0l8r7nJzGO50E5MXq8edKgpMcd7
vSbeO88TVU1/rcjot2z0TUZavhfJjQ6WGATeQFypghBLWCQXEuWa4wV3+z/s51EW
Ymyl1DCGfg834w==
-----END CERTIFICATE-----
