Certificate:
    Data:
        Version: 3 (0x2)
        Serial Number:
            50:1c:b8:2f:73:a6:cc:54:d0:96:38:7c:ee:bd:bc:2e:7d:df:e6:be
        Signature Algorithm: sha256WithRSAEncryption
        Issuer: C = NZ, ST = Waikato, L = Hamilton, O = Blue Leaf Software Ltd, CN = Blue Leaf Software CA
        Validity
            Not Before: Apr 20 16:52:35 2023 GMT
            Not After : Apr 30 16:52:35 2023 GMT
        Subject: C = NZ, ST = Waikato, L = Hamilton, O = "Blue Leaf Software, Ltd", CN = "Lumos HW, serialNumber = BLS-002"
        Subject Public Key Info:
            Public Key Algorithm: rsaEncryption
                Public-Key: (2048 bit)
                Modulus:
                    00:af:c0:eb:3a:24:8a:fc:ad:58:1b:de:9a:5e:a8:
                    a9:25:cf:ab:9b:53:49:0b:7d:3c:97:2c:77:92:9d:
                    38:a6:68:d8:ef:ee:20:53:c3:f5:18:84:12:f6:8c:
                    27:42:6b:f3:0c:93:a7:5c:6b:3c:5f:2b:fe:5d:a0:
                    67:3c:48:87:f8:40:45:c5:25:c6:e9:78:b5:1e:d2:
                    48:49:48:76:0c:fa:6c:37:ff:a9:f5:70:46:50:af:
                    4a:99:fe:22:cd:7c:a0:5f:7f:72:0c:32:ed:60:a1:
                    eb:c4:d2:f4:17:f7:30:94:c0:55:9e:9a:9d:3f:80:
                    a4:6c:87:41:63:52:96:a8:72:a0:98:e8:08:9d:97:
                    fd:7e:c7:5d:a6:34:38:18:e5:47:70:85:b1:07:9d:
                    b3:75:5b:ee:f0:e0:60:13:b1:fc:95:46:54:f1:eb:
                    7a:cb:ff:06:e6:61:23:ff:eb:bd:e5:43:5e:fc:bf:
                    4f:e8:c9:a6:87:99:15:3c:f3:d5:cf:a1:48:38:7f:
                    4d:60:93:5d:61:b3:91:1d:7c:de:5e:88:2c:b1:d8:
                    54:27:3e:7d:46:ee:c2:16:61:dd:c7:2a:66:6a:82:
                    f6:90:08:d3:a7:cf:8e:8b:e3:5d:e1:ba:50:cb:ee:
                    ca:e1:f3:0f:bc:c1:46:82:0a:65:83:f9:1f:15:22:
                    8a:3f
                Exponent: 65537 (0x10001)
        X509v3 extensions:
            X509v3 Basic Constraints: 
                CA:FALSE
            X509v3 Extended Key Usage: 
                TLS Web Server Authentication, TLS Web Client Authentication
            X509v3 Certificate Policies: critical
                Policy: 1.3.6.1.4.1.59430.2.1
                Policy: 1.3.6.1.4.1.59430.2.1.1
                Policy: 1.3.6.1.4.1.59430.2.1.2
            X509v3 Subject Key Identifier: 
                71:B3:10:67:50:AB:80:52:5D:72:2D:5C:06:BC:3F:44:00:BB:36:A8
            X509v3 Authority Key Identifier: 
                1C:D0:70:E6:15:83:CD:8E:FB:08:71:37:00:05:95:4C:4E:93:82:6B
    Signature Algorithm: sha256WithRSAEncryption
    Signature Value:
        10:27:39:d4:72:84:e7:52:d4:8e:77:35:9a:01:03:d8:8c:1f:
        b8:ae:4b:a7:51:a8:9d:5a:42:09:c6:04:6c:29:d0:eb:f5:df:
        e0:94:f3:60:6b:90:bf:16:c9:a0:4a:f8:76:4f:69:d1:67:99:
        e5:1a:c2:80:ee:b1:11:b1:9c:a4:85:33:87:a8:f1:d5:a1:66:
        14:87:8b:d3:89:7b:84:bb:2c:84:82:12:3e:fe:ee:ac:83:a6:
        9c:fe:07:3e:0d:8c:51:13:7b:84:19:4d:3f:62:a5:86:e2:54:
        ca:cf:f3:52:df:2b:57:f0:65:f3:d7:b2:bb:90:a1:b1:80:53:
        82:d6:e8:4d:8b:2c:d5:da:4a:86:3d:2c:e1:93:f6:9e:2d:94:
        8b:75:79:09:a6:0b:ff:c6:d1:7f:ae:41:82:b4:f2:88:8c:5a:
        9d:eb:3b:9a:1d:b4:22:6e:01:54:18:ad:19:d0:24:1c:1d:dd:
        9d:02:7d:93:ac:64:e8:0f:1d:74:d6:91:98:9a:67:1f:1c:97:
        46:1d:7d:96:7b:77:28:2d:69:c7:3c:9e:0a:ef:9c:e9:e7:bd:
        84:e6:92:68:24:1b:e8:da:a4:e2:ba:89:5e:bb:42:a4:9b:02:
        b6:70:1a:86:5c:32:d7:c0:9d:1f:94:f5:f3:ce:88:b3:02:54:
        d3:0e:71:d1:72:1c:b0:9d:78:b3:79:13:c6:e9:6a:ce:92:3b:
        7b:3e:52:3f:b4:5b:3f:90:26:cd:d9:31:25:3f:51:2f:3a:02:
        cf:5e:5e:c6:40:a1:01:54:19:1c:ea:a8:c1:c8:7a:b3:83:9b:
        2b:ed:39:4b:ca:70:31:9a:98:3f:ce:31:75:0e:ff:e5:40:80:
        05:44:f3:91:cc:75:5c:07:10:a1:b6:e9:de:eb:1e:11:e3:b9:
        70:1e:df:c7:03:b6:a8:06:10:42:48:99:3d:da:48:f2:3c:b4:
        56:94:b6:22:8e:b8:2a:9c:29:ba:6a:e4:4e:15:da:3d:b2:2c:
        7e:92:82:64:7f:f9:4b:da:83:74:d5:59:55:95:a7:d3:a3:80:
        43:dd:ac:bb:45:91:ab:fa:5c:cf:19:a1:68:3d:8d:91:e7:55:
        ed:37:fe:dd:4a:1e:0b:2d:08:40:41:e1:7b:12:a0:ec:cf:8c:
        d5:8d:9a:38:51:e6:a5:93:74:9d:2b:45:14:0f:0a:56:8b:f0:
        81:ea:5b:46:e6:3f:6c:e7:1d:85:ca:69:44:19:ac:61:da:4a:
        56:2f:a5:5d:fa:d4:e5:97:72:a0:b5:ed:8a:66:9e:00:b6:7a:
        43:b9:3a:ef:e0:54:f7:0a:46:6e:4d:91:73:46:e6:56:9c:5e:
        b0:74:9d:cc:71:47:b7:3d
-----BEGIN CERTIFICATE-----
MIIFKDCCAxCgAwIBAgIUUBy4L3OmzFTQljh87r28Ln3f5r4wDQYJKoZIhvcNAQEL
BQAwczELMAkGA1UEBhMCTloxEDAOBgNVBAgMB1dhaWthdG8xETAPBgNVBAcMCEhh
bWlsdG9uMR8wHQYDVQQKDBZCbHVlIExlYWYgU29mdHdhcmUgTHRkMR4wHAYDVQQD
DBVCbHVlIExlYWYgU29mdHdhcmUgQ0EwHhcNMjMwNDIwMTY1MjM1WhcNMjMwNDMw
MTY1MjM1WjB/MQswCQYDVQQGEwJOWjEQMA4GA1UECAwHV2Fpa2F0bzERMA8GA1UE
BwwISGFtaWx0b24xIDAeBgNVBAoMF0JsdWUgTGVhZiBTb2Z0d2FyZSwgTHRkMSkw
JwYDVQQDDCBMdW1vcyBIVywgc2VyaWFsTnVtYmVyID0gQkxTLTAwMjCCASIwDQYJ
KoZIhvcNAQEBBQADggEPADCCAQoCggEBAK/A6zokivytWBveml6oqSXPq5tTSQt9
PJcsd5KdOKZo2O/uIFPD9RiEEvaMJ0Jr8wyTp1xrPF8r/l2gZzxIh/hARcUlxul4
tR7SSElIdgz6bDf/qfVwRlCvSpn+Is18oF9/cgwy7WCh68TS9Bf3MJTAVZ6anT+A
pGyHQWNSlqhyoJjoCJ2X/X7HXaY0OBjlR3CFsQeds3Vb7vDgYBOx/JVGVPHresv/
BuZhI//rveVDXvy/T+jJpoeZFTzz1c+hSDh/TWCTXWGzkR183l6ILLHYVCc+fUbu
whZh3ccqZmqC9pAI06fPjovjXeG6UMvuyuHzD7zBRoIKZYP5HxUiij8CAwEAAaOB
pzCBpDAJBgNVHRMEAjAAMB0GA1UdJQQWMBQGCCsGAQUFBwMBBggrBgEFBQcDAjA4
BgNVHSABAf8ELjAsMAwGCisGAQQBg9AmAgEwDQYLKwYBBAGD0CYCAQEwDQYLKwYB
BAGD0CYCAQIwHQYDVR0OBBYEFHGzEGdQq4BSXXItXAa8P0QAuzaoMB8GA1UdIwQY
MBaAFBzQcOYVg82O+whxNwAFlUxOk4JrMA0GCSqGSIb3DQEBCwUAA4ICAQAQJznU
coTnUtSOdzWaAQPYjB+4rkunUaidWkIJxgRsKdDr9d/glPNga5C/FsmgSvh2T2nR
Z5nlGsKA7rERsZykhTOHqPHVoWYUh4vTiXuEuyyEghI+/u6sg6ac/gc+DYxRE3uE
GU0/YqWG4lTKz/NS3ytX8GXz17K7kKGxgFOC1uhNiyzV2kqGPSzhk/aeLZSLdXkJ
pgv/xtF/rkGCtPKIjFqd6zuaHbQibgFUGK0Z0CQcHd2dAn2TrGToDx101pGYmmcf
HJdGHX2We3coLWnHPJ4K75zp572E5pJoJBvo2qTiuoleu0KkmwK2cBqGXDLXwJ0f
lPXzzoizAlTTDnHRchywnXizeRPG6WrOkjt7PlI/tFs/kCbN2TElP1EvOgLPXl7G
QKEBVBkc6qjByHqzg5sr7TlLynAxmpg/zjF1Dv/lQIAFRPORzHVcBxChtune6x4R
47lwHt/HA7aoBhBCSJk92kjyPLRWlLYijrgqnCm6auROFdo9six+koJkf/lL2oN0
1VlVlafTo4BD3ay7RZGr+lzPGaFoPY2R51XtN/7dSh4LLQhAQeF7EqDsz4zVjZo4
Uealk3SdK0UUDwpWi/CB6ltG5j9s5x2FymlEGaxh2kpWL6Vd+tTll3Kgte2KZp4A
tnpDuTrv4FT3CkZuTZFzRuZWnF6wdJ3McUe3PQ==
-----END CERTIFICATE-----
