Certificate:
    Data:
        Version: 3 (0x2)
        Serial Number:
            69:e0:21:e2:2c:84:c1:09:58:e9:1e:ca:3d:05:ec:1b:32:48:57:c0
        Signature Algorithm: sha256WithRSAEncryption
        Issuer: C = NZ, ST = Waikato, L = Hamilton, O = Blue Leaf Software Ltd, CN = Blue Leaf Software CA
        Validity
            Not Before: Apr 29 17:54:31 2023 GMT
            Not After : May  9 17:54:31 2023 GMT
        Subject: C = NZ, ST = Waikato, L = Hamilton, O = "Blue Leaf Software, Ltd", CN = "Lumos HW, serialNumber = BLS-002"
        Subject Public Key Info:
            Public Key Algorithm: rsaEncryption
                Public-Key: (512 bit)
                Modulus:
                    00:a5:9c:0c:0a:f1:b9:ab:b0:1f:ac:0d:19:43:2d:
                    d2:f6:3a:02:23:d2:48:38:b1:c5:dd:25:87:39:4d:
                    42:4b:ed:13:ef:8c:e2:e4:31:28:4f:c1:70:38:b6:
                    fc:8a:a6:19:c5:07:38:7f:28:83:56:d2:ee:5b:64:
                    26:d4:04:ea:61
                Exponent: 65537 (0x10001)
        X509v3 extensions:
            X509v3 Basic Constraints: 
                CA:FALSE
            X509v3 Extended Key Usage: 
                TLS Web Server Authentication, TLS Web Client Authentication
            X509v3 Certificate Policies: critical
                Policy: 1.3.6.1.4.1.59430.2.1
                Policy: 1.3.6.1.4.1.59430.2.1.1
                Policy: 1.3.6.1.4.1.59430.2.1.2
            X509v3 Subject Key Identifier: 
                AA:6D:E0:13:52:8F:C7:30:0D:04:7A:31:F4:8A:8E:58:68:44:1C:16
            X509v3 Authority Key Identifier: 
                1C:D0:70:E6:15:83:CD:8E:FB:08:71:37:00:05:95:4C:4E:93:82:6B
    Signature Algorithm: sha256WithRSAEncryption
    Signature Value:
        20:34:47:8c:df:28:25:29:ea:19:c7:c3:8f:55:84:6d:d7:20:
        2e:84:7f:de:86:88:fe:d6:52:64:ae:02:c0:88:25:ef:72:6d:
        08:11:99:ac:4d:61:92:f0:13:ee:10:79:ca:0e:e5:cd:54:b2:
        d3:91:8e:fe:48:2d:c2:43:56:e5:cd:d1:40:c5:18:9f:2c:6e:
        a8:42:2d:d3:1b:33:6b:33:41:75:2a:fe:a1:af:4f:ed:54:39:
        63:d2:ea:91:19:ff:da:19:68:e9:44:a1:f7:cb:f8:dc:ee:da:
        c2:9d:f9:b9:c5:67:1f:e6:fe:2e:bf:c7:e3:20:31:c8:ac:2e:
        41:1f:9d:44:9a:77:63:25:f1:be:f0:b0:fa:fe:4d:cf:a1:b6:
        c4:32:f8:90:f0:c2:06:8e:5a:1b:27:43:7c:c3:10:6e:a0:01:
        08:41:6f:fc:bb:1d:5d:77:c0:7b:50:d9:9c:64:32:72:5d:a4:
        c9:a6:81:4e:f5:ce:a0:a6:5a:fd:c1:b9:00:b5:3f:78:72:9d:
        f0:82:92:43:af:90:7b:5d:42:6f:1e:be:e6:95:a5:72:7e:14:
        6b:e3:20:7d:c2:c1:a8:f7:54:08:45:1c:46:80:2c:b5:ff:26:
        68:eb:97:2b:43:ba:10:13:b9:8d:a0:b0:2e:71:bc:f4:94:9e:
        50:18:8a:14:af:3a:1c:23:ae:f6:e9:9a:b4:f9:ca:59:1c:03:
        4e:32:ef:f8:6d:92:ca:2a:75:b0:57:fa:55:14:be:f3:d6:1c:
        d5:85:59:ff:e0:8a:bc:de:93:79:9f:a0:02:e1:1e:0c:ac:5e:
        fe:b3:29:6e:38:ff:eb:2c:40:2c:fc:59:50:3a:ee:da:69:5d:
        7b:df:cf:b4:5d:fd:b4:4a:58:88:1d:44:1f:c9:d5:19:ea:be:
        ac:e5:36:15:4f:df:74:0b:b4:01:94:36:cf:3b:cb:0e:90:ef:
        2f:e8:53:82:2e:cf:68:3b:c6:f0:9c:fe:80:7d:5f:ea:08:eb:
        28:fc:93:09:42:a1:73:ba:87:75:59:72:f0:e1:f9:34:9f:16:
        1e:92:f4:13:9b:16:fe:bc:f2:79:7d:e0:11:bd:f9:c9:93:8e:
        73:ad:e7:e0:db:78:b8:db:90:3f:27:14:2b:68:62:00:3f:7e:
        76:11:0f:9c:39:f9:30:72:af:cb:b8:e9:8a:b8:7b:2b:e8:04:
        13:c8:a8:af:08:ff:b2:30:cc:7b:16:47:2d:63:30:dd:be:e2:
        11:67:08:f8:b0:1a:8d:b9:f3:81:7a:cd:8f:ba:0f:7b:a7:71:
        4c:3a:25:57:e1:c8:d0:aa:72:19:a3:d5:2c:d0:50:9d:a0:b7:
        cb:6d:44:bf:8f:ea:db:2e
-----BEGIN CERTIFICATE-----
MIIEYDCCAkigAwIBAgIUaeAh4iyEwQlY6R7KPQXsGzJIV8AwDQYJKoZIhvcNAQEL
BQAwczELMAkGA1UEBhMCTloxEDAOBgNVBAgMB1dhaWthdG8xETAPBgNVBAcMCEhh
bWlsdG9uMR8wHQYDVQQKDBZCbHVlIExlYWYgU29mdHdhcmUgTHRkMR4wHAYDVQQD
DBVCbHVlIExlYWYgU29mdHdhcmUgQ0EwHhcNMjMwNDI5MTc1NDMxWhcNMjMwNTA5
MTc1NDMxWjB/MQswCQYDVQQGEwJOWjEQMA4GA1UECAwHV2Fpa2F0bzERMA8GA1UE
BwwISGFtaWx0b24xIDAeBgNVBAoMF0JsdWUgTGVhZiBTb2Z0d2FyZSwgTHRkMSkw
JwYDVQQDDCBMdW1vcyBIVywgc2VyaWFsTnVtYmVyID0gQkxTLTAwMjBcMA0GCSqG
SIb3DQEBAQUAA0sAMEgCQQClnAwK8bmrsB+sDRlDLdL2OgIj0kg4scXdJYc5TUJL
7RPvjOLkMShPwXA4tvyKphnFBzh/KINW0u5bZCbUBOphAgMBAAGjgacwgaQwCQYD
VR0TBAIwADAdBgNVHSUEFjAUBggrBgEFBQcDAQYIKwYBBQUHAwIwOAYDVR0gAQH/
BC4wLDAMBgorBgEEAYPQJgIBMA0GCysGAQQBg9AmAgEBMA0GCysGAQQBg9AmAgEC
MB0GA1UdDgQWBBSqbeATUo/HMA0EejH0io5YaEQcFjAfBgNVHSMEGDAWgBQc0HDm
FYPNjvsIcTcABZVMTpOCazANBgkqhkiG9w0BAQsFAAOCAgEAIDRHjN8oJSnqGcfD
j1WEbdcgLoR/3oaI/tZSZK4CwIgl73JtCBGZrE1hkvAT7hB5yg7lzVSy05GO/kgt
wkNW5c3RQMUYnyxuqEIt0xszazNBdSr+oa9P7VQ5Y9LqkRn/2hlo6USh98v43O7a
wp35ucVnH+b+Lr/H4yAxyKwuQR+dRJp3YyXxvvCw+v5Nz6G2xDL4kPDCBo5aGydD
fMMQbqABCEFv/LsdXXfAe1DZnGQycl2kyaaBTvXOoKZa/cG5ALU/eHKd8IKSQ6+Q
e11Cbx6+5pWlcn4Ua+MgfcLBqPdUCEUcRoAstf8maOuXK0O6EBO5jaCwLnG89JSe
UBiKFK86HCOu9umatPnKWRwDTjLv+G2Syip1sFf6VRS+89Yc1YVZ/+CKvN6TeZ+g
AuEeDKxe/rMpbjj/6yxALPxZUDru2mlde9/PtF39tEpYiB1EH8nVGeq+rOU2FU/f
dAu0AZQ2zzvLDpDvL+hTgi7PaDvG8Jz+gH1f6gjrKPyTCUKhc7qHdVly8OH5NJ8W
HpL0E5sW/rzyeX3gEb35yZOOc63n4Nt4uNuQPycUK2hiAD9+dhEPnDn5MHKvy7jp
irh7K+gEE8iorwj/sjDMexZHLWMw3b7iEWcI+LAajbnzgXrNj7oPe6dxTDolV+HI
0KpyGaPVLNBQnaC3y21Ev4/q2y4=
-----END CERTIFICATE-----
