Certificate:
    Data:
        Version: 3 (0x2)
        Serial Number:
            08:df:e3:8b:02:7c:0f:8e:62:72:e7:79:04:5c:26:35:92:14:bf:4e
        Signature Algorithm: sha256WithRSAEncryption
        Issuer: C = NZ, ST = Waikato, L = Hamilton, O = Blue Leaf Software Ltd, CN = Blue Leaf Software CA
        Validity
            Not Before: Apr 25 12:23:19 2023 GMT
            Not After : May  5 12:23:19 2023 GMT
        Subject: C = NZ, ST = Waikato, L = Hamilton, O = "Blue Leaf Software, Ltd", CN = "Lumos HW, serialNumber = BLS-002"
        Subject Public Key Info:
            Public Key Algorithm: rsaEncryption
                Public-Key: (512 bit)
                Modulus:
                    00:bf:20:9b:3e:51:90:04:7d:3c:00:fc:16:83:96:
                    eb:55:ae:ac:79:44:96:3b:9b:74:fd:dc:9d:10:aa:
                    04:c0:24:06:d1:58:f2:46:1a:22:5e:e2:ce:fe:87:
                    0f:e9:19:01:67:fc:1b:b9:77:81:9b:7f:14:4c:a9:
                    48:80:bb:15:c1
                Exponent: 65537 (0x10001)
        X509v3 extensions:
            X509v3 Basic Constraints: 
                CA:FALSE
            X509v3 Extended Key Usage: 
                TLS Web Server Authentication, TLS Web Client Authentication
            X509v3 Certificate Policies: critical
                Policy: 1.3.6.1.4.1.59430.2.1
                Policy: 1.3.6.1.4.1.59430.2.1.1
                Policy: 1.3.6.1.4.1.59430.2.1.2
            X509v3 Subject Key Identifier: 
                34:DB:26:3F:4A:3F:13:0A:61:D4:1B:B8:AA:86:65:4F:D5:53:0C:70
            X509v3 Authority Key Identifier: 
                1C:D0:70:E6:15:83:CD:8E:FB:08:71:37:00:05:95:4C:4E:93:82:6B
    Signature Algorithm: sha256WithRSAEncryption
    Signature Value:
        b6:ed:ea:e2:86:bb:28:8b:a5:27:53:ab:2f:fa:18:70:96:30:
        cf:54:1e:54:3c:60:31:74:4c:7f:02:81:83:f4:d8:94:d1:65:
        56:93:20:21:3b:fd:67:a9:71:fd:6c:51:18:de:bb:c1:9a:32:
        6e:8d:6a:09:1a:6f:fb:21:57:49:69:84:eb:1e:f9:32:b0:56:
        e3:78:20:c5:cb:13:9b:ad:95:90:6b:ae:73:97:1a:40:e1:d3:
        66:ec:81:74:3c:6e:5a:fa:96:c8:45:13:d2:16:29:b6:53:01:
        1d:80:95:7a:a2:de:66:9c:4a:6a:b5:40:8a:62:d5:a1:0f:3c:
        6b:83:df:07:0e:a6:64:41:ca:28:d2:1f:c0:3c:c5:26:6a:e4:
        01:05:dc:a4:ab:05:49:16:d5:97:e0:e0:62:58:0c:3b:33:89:
        a6:1d:be:bf:88:18:87:d0:58:6c:62:b5:ab:26:e2:68:06:6a:
        81:53:eb:43:52:90:0a:44:ad:61:0a:f5:eb:c0:41:34:ff:2a:
        31:0d:9b:e5:2e:9c:63:38:f9:d3:5b:03:36:1b:c9:ed:d5:4e:
        74:36:58:60:ce:8d:a0:13:1d:08:86:7d:ac:eb:8c:16:ae:fc:
        dd:e4:98:82:26:f9:f8:c6:4d:95:7e:e2:73:cb:9e:d0:f2:08:
        cb:dd:27:15:a9:8a:e3:c9:33:fb:6e:15:07:a1:15:d0:df:10:
        40:af:53:9e:b1:52:b8:1b:33:c7:11:79:62:ce:ae:cd:00:45:
        2c:e1:7a:dd:86:d7:0e:ed:2b:71:37:0d:3b:4e:26:b6:17:f0:
        68:e8:1b:eb:3d:07:67:33:2d:04:da:e0:5b:62:87:c1:58:29:
        ef:17:37:41:a1:1c:44:f5:a2:48:1c:29:b5:d9:15:aa:6d:0b:
        30:59:96:8f:a8:c9:96:4f:fe:10:ef:af:a8:63:64:ae:8c:88:
        2c:f0:20:67:b0:a5:b3:0f:72:17:de:a8:b2:07:f9:df:37:d1:
        dd:e9:50:0c:76:6a:9d:55:0a:02:7a:e5:84:cf:fc:0a:a0:2f:
        aa:26:b2:a0:53:28:94:1b:d5:f1:dc:0a:ac:e5:95:16:57:b6:
        1e:0c:f7:8c:a9:e4:63:34:16:02:4d:1c:40:2d:20:3f:b1:de:
        c1:65:29:3e:13:22:49:0c:04:2c:6c:7b:de:d1:8d:b4:d3:2c:
        d3:2b:9f:03:da:ea:a2:d4:4a:3f:71:df:84:38:78:20:5c:24:
        ae:85:b4:ca:ef:08:2b:0e:f9:69:ae:41:20:ad:27:0c:2f:99:
        48:28:7d:3c:d9:30:b5:27:88:bf:8d:3d:9a:9a:24:e5:13:b9:
        cf:ec:8b:61:19:dc:0c:58
-----BEGIN CERTIFICATE-----
MIIEYDCCAkigAwIBAgIUCN/jiwJ8D45icud5BFwmNZIUv04wDQYJKoZIhvcNAQEL
BQAwczELMAkGA1UEBhMCTloxEDAOBgNVBAgMB1dhaWthdG8xETAPBgNVBAcMCEhh
bWlsdG9uMR8wHQYDVQQKDBZCbHVlIExlYWYgU29mdHdhcmUgTHRkMR4wHAYDVQQD
DBVCbHVlIExlYWYgU29mdHdhcmUgQ0EwHhcNMjMwNDI1MTIyMzE5WhcNMjMwNTA1
MTIyMzE5WjB/MQswCQYDVQQGEwJOWjEQMA4GA1UECAwHV2Fpa2F0bzERMA8GA1UE
BwwISGFtaWx0b24xIDAeBgNVBAoMF0JsdWUgTGVhZiBTb2Z0d2FyZSwgTHRkMSkw
JwYDVQQDDCBMdW1vcyBIVywgc2VyaWFsTnVtYmVyID0gQkxTLTAwMjBcMA0GCSqG
SIb3DQEBAQUAA0sAMEgCQQC/IJs+UZAEfTwA/BaDlutVrqx5RJY7m3T93J0QqgTA
JAbRWPJGGiJe4s7+hw/pGQFn/Bu5d4GbfxRMqUiAuxXBAgMBAAGjgacwgaQwCQYD
VR0TBAIwADAdBgNVHSUEFjAUBggrBgEFBQcDAQYIKwYBBQUHAwIwOAYDVR0gAQH/
BC4wLDAMBgorBgEEAYPQJgIBMA0GCysGAQQBg9AmAgEBMA0GCysGAQQBg9AmAgEC
MB0GA1UdDgQWBBQ02yY/Sj8TCmHUG7iqhmVP1VMMcDAfBgNVHSMEGDAWgBQc0HDm
FYPNjvsIcTcABZVMTpOCazANBgkqhkiG9w0BAQsFAAOCAgEAtu3q4oa7KIulJ1Or
L/oYcJYwz1QeVDxgMXRMfwKBg/TYlNFlVpMgITv9Z6lx/WxRGN67wZoybo1qCRpv
+yFXSWmE6x75MrBW43ggxcsTm62VkGuuc5caQOHTZuyBdDxuWvqWyEUT0hYptlMB
HYCVeqLeZpxKarVAimLVoQ88a4PfBw6mZEHKKNIfwDzFJmrkAQXcpKsFSRbVl+Dg
YlgMOzOJph2+v4gYh9BYbGK1qybiaAZqgVPrQ1KQCkStYQr168BBNP8qMQ2b5S6c
Yzj501sDNhvJ7dVOdDZYYM6NoBMdCIZ9rOuMFq783eSYgib5+MZNlX7ic8ue0PII
y90nFamK48kz+24VB6EV0N8QQK9TnrFSuBszxxF5Ys6uzQBFLOF63YbXDu0rcTcN
O04mthfwaOgb6z0HZzMtBNrgW2KHwVgp7xc3QaEcRPWiSBwptdkVqm0LMFmWj6jJ
lk/+EO+vqGNkroyILPAgZ7Clsw9yF96osgf53zfR3elQDHZqnVUKAnrlhM/8CqAv
qiayoFMolBvV8dwKrOWVFle2Hgz3jKnkYzQWAk0cQC0gP7HewWUpPhMiSQwELGx7
3tGNtNMs0yufA9rqotRKP3HfhDh4IFwkroW0yu8IKw75aa5BIK0nDC+ZSCh9PNkw
tSeIv409mpok5RO5z+yLYRncDFg=
-----END CERTIFICATE-----
