Certificate:
    Data:
        Version: 3 (0x2)
        Serial Number:
            0f:1e:ad:7b:f3:11:3b:88:17:c6:29:e7:80:79:a2:57:88:a9:7f:a7
        Signature Algorithm: sha256WithRSAEncryption
        Issuer: C = NZ, ST = Waikato, L = Hamilton, O = Blue Leaf Software Ltd, CN = Blue Leaf Software CA
        Validity
            Not Before: Apr 22 08:01:29 2023 GMT
            Not After : May  2 08:01:29 2023 GMT
        Subject: C = NZ, ST = Waikato, L = Hamilton, O = "Blue Leaf Software, Ltd", CN = "Lumos HW, serialNumber = BLS-002"
        Subject Public Key Info:
            Public Key Algorithm: rsaEncryption
                Public-Key: (2048 bit)
                Modulus:
                    00:b7:08:a4:58:7e:c7:67:5e:68:f7:49:41:73:a4:
                    bf:5e:4a:4e:88:90:17:e5:c5:46:0d:5f:9d:80:2b:
                    e6:bc:49:44:7c:0b:d8:40:21:2d:1e:9e:9a:0f:d9:
                    3a:f7:d9:60:18:4d:71:d9:fc:68:72:b9:9e:6f:23:
                    e0:4b:0e:04:fd:5e:6d:39:13:2f:54:6c:1e:1e:6b:
                    3e:c3:28:18:1e:62:a6:19:cd:31:bb:75:9d:e5:90:
                    5c:3c:ee:d6:a9:e2:39:7c:4c:84:95:22:ab:dd:12:
                    e8:76:97:b7:94:3c:d5:40:37:ac:fa:7a:9f:2b:7b:
                    46:55:e6:96:84:50:33:97:50:61:72:f8:b4:dd:23:
                    40:58:ee:11:6f:61:66:ec:a0:5c:a5:a1:11:f1:b4:
                    e1:c4:6e:d6:10:4b:b0:be:27:68:59:3d:75:b5:13:
                    cc:38:a6:e2:c4:8b:09:f7:68:c8:63:a8:09:3c:cc:
                    16:cb:58:62:72:97:a1:28:0f:67:e2:19:dc:bf:d2:
                    da:28:b9:6c:d5:e0:41:b4:81:45:5b:2a:02:64:d9:
                    09:34:d3:9b:04:43:b6:11:c5:19:86:7c:0f:f2:2a:
                    37:3e:c4:71:f9:16:ba:e4:5d:ab:6c:b1:39:9f:67:
                    ed:9f:e2:97:7c:ab:01:53:b5:da:1d:57:c6:81:5f:
                    2d:d3
                Exponent: 65537 (0x10001)
        X509v3 extensions:
            X509v3 Basic Constraints: 
                CA:FALSE
            X509v3 Extended Key Usage: 
                TLS Web Server Authentication, TLS Web Client Authentication
            X509v3 Certificate Policies: critical
                Policy: 1.3.6.1.4.1.59430.2.1
                Policy: 1.3.6.1.4.1.59430.2.1.1
                Policy: 1.3.6.1.4.1.59430.2.1.2
            X509v3 Subject Key Identifier: 
                93:C3:7E:13:62:58:6F:9B:52:30:FE:38:26:10:EB:79:FF:9C:7D:BB
            X509v3 Authority Key Identifier: 
                1C:D0:70:E6:15:83:CD:8E:FB:08:71:37:00:05:95:4C:4E:93:82:6B
    Signature Algorithm: sha256WithRSAEncryption
    Signature Value:
        2a:6c:da:24:0b:4d:fd:00:a4:f8:e7:33:75:b8:c2:07:76:3d:
        0b:76:27:60:67:41:93:cc:83:b2:8c:86:64:4c:57:06:80:92:
        e8:9e:cb:83:57:2e:8f:09:09:f9:b2:b6:0f:47:04:c4:3d:fa:
        e1:1c:c6:94:7d:fc:8d:3b:d0:5b:05:e7:1b:f8:8e:71:c8:83:
        43:f3:01:bf:d0:48:81:29:65:d4:a1:1c:ea:f0:4b:41:e0:15:
        47:6f:b8:ba:9a:29:8a:7d:7d:57:d6:e5:5e:d2:a5:bf:75:cd:
        b9:e3:7f:47:e7:30:21:90:68:72:9d:15:b8:56:a4:be:fe:62:
        23:69:91:a4:bb:2b:76:e6:cb:5f:7a:9f:40:f6:19:05:29:43:
        8e:6d:ee:5d:ab:57:cd:1a:62:52:b4:bb:d3:62:04:bb:81:67:
        2e:3b:20:10:3e:d8:45:6f:4b:a8:5d:46:96:e7:6a:85:b3:ff:
        d4:15:aa:ea:13:00:b9:ca:67:49:27:5c:ac:e8:14:91:fb:fc:
        9a:1a:93:04:dd:a6:74:6d:9c:ab:f0:d3:e0:f6:e1:e0:d2:72:
        b6:00:5b:c6:30:63:05:4e:69:e9:3d:1a:41:3a:c0:22:ea:d6:
        f1:25:76:40:17:f7:0e:3a:f7:d6:d7:da:f6:49:24:36:a6:14:
        a6:cb:4b:d5:8b:3e:b6:3d:f9:db:22:36:10:66:f6:07:d5:c0:
        85:81:18:57:63:21:bb:df:21:b5:aa:97:4b:0b:7b:a3:fd:aa:
        e0:08:a6:47:3f:8e:37:19:fb:b4:46:dc:6a:de:72:37:eb:6f:
        f3:23:1d:ff:83:c8:74:66:64:03:07:4d:bf:6e:ec:28:de:7b:
        19:3e:55:b8:52:19:11:76:67:ba:e2:ea:4d:00:09:9b:fe:11:
        7a:b2:c6:f0:c2:e7:85:9e:b1:24:22:28:b7:51:80:5d:d1:f4:
        87:95:fe:72:04:1c:94:ac:ac:6d:3c:69:45:b3:40:e0:93:e9:
        54:19:e1:d5:e4:ad:c1:cf:d0:c7:80:65:50:ac:4c:7f:45:26:
        18:0b:58:d8:23:d0:07:5b:66:36:15:26:c7:79:6b:06:8c:53:
        37:79:c8:b3:90:88:0e:f1:8d:3d:2f:bc:80:73:17:7b:3e:ee:
        a8:37:63:3f:98:b4:6b:98:fd:c9:07:1b:ef:84:1b:9a:9a:16:
        46:20:ae:79:df:d2:90:a5:a4:c3:47:db:e9:0e:8f:c6:7b:f9:
        9e:10:53:59:a5:cd:00:f4:e7:bb:02:9e:57:1a:b2:d7:60:94:
        7a:c5:26:37:76:a5:3f:5b:f9:13:f4:a0:44:7b:a1:c9:38:d9:
        bc:e2:96:9a:c3:d9:a4:10
-----BEGIN CERTIFICATE-----
MIIFKDCCAxCgAwIBAgIUDx6te/MRO4gXxinngHmiV4ipf6cwDQYJKoZIhvcNAQEL
BQAwczELMAkGA1UEBhMCTloxEDAOBgNVBAgMB1dhaWthdG8xETAPBgNVBAcMCEhh
bWlsdG9uMR8wHQYDVQQKDBZCbHVlIExlYWYgU29mdHdhcmUgTHRkMR4wHAYDVQQD
DBVCbHVlIExlYWYgU29mdHdhcmUgQ0EwHhcNMjMwNDIyMDgwMTI5WhcNMjMwNTAy
MDgwMTI5WjB/MQswCQYDVQQGEwJOWjEQMA4GA1UECAwHV2Fpa2F0bzERMA8GA1UE
BwwISGFtaWx0b24xIDAeBgNVBAoMF0JsdWUgTGVhZiBTb2Z0d2FyZSwgTHRkMSkw
JwYDVQQDDCBMdW1vcyBIVywgc2VyaWFsTnVtYmVyID0gQkxTLTAwMjCCASIwDQYJ
KoZIhvcNAQEBBQADggEPADCCAQoCggEBALcIpFh+x2deaPdJQXOkv15KToiQF+XF
Rg1fnYAr5rxJRHwL2EAhLR6emg/ZOvfZYBhNcdn8aHK5nm8j4EsOBP1ebTkTL1Rs
Hh5rPsMoGB5iphnNMbt1neWQXDzu1qniOXxMhJUiq90S6HaXt5Q81UA3rPp6nyt7
RlXmloRQM5dQYXL4tN0jQFjuEW9hZuygXKWhEfG04cRu1hBLsL4naFk9dbUTzDim
4sSLCfdoyGOoCTzMFstYYnKXoSgPZ+IZ3L/S2ii5bNXgQbSBRVsqAmTZCTTTmwRD
thHFGYZ8D/IqNz7EcfkWuuRdq2yxOZ9n7Z/il3yrAVO12h1XxoFfLdMCAwEAAaOB
pzCBpDAJBgNVHRMEAjAAMB0GA1UdJQQWMBQGCCsGAQUFBwMBBggrBgEFBQcDAjA4
BgNVHSABAf8ELjAsMAwGCisGAQQBg9AmAgEwDQYLKwYBBAGD0CYCAQEwDQYLKwYB
BAGD0CYCAQIwHQYDVR0OBBYEFJPDfhNiWG+bUjD+OCYQ63n/nH27MB8GA1UdIwQY
MBaAFBzQcOYVg82O+whxNwAFlUxOk4JrMA0GCSqGSIb3DQEBCwUAA4ICAQAqbNok
C039AKT45zN1uMIHdj0LdidgZ0GTzIOyjIZkTFcGgJLonsuDVy6PCQn5srYPRwTE
PfrhHMaUffyNO9BbBecb+I5xyIND8wG/0EiBKWXUoRzq8EtB4BVHb7i6mimKfX1X
1uVe0qW/dc25439H5zAhkGhynRW4VqS+/mIjaZGkuyt25stfep9A9hkFKUOObe5d
q1fNGmJStLvTYgS7gWcuOyAQPthFb0uoXUaW52qFs//UFarqEwC5ymdJJ1ys6BSR
+/yaGpME3aZ0bZyr8NPg9uHg0nK2AFvGMGMFTmnpPRpBOsAi6tbxJXZAF/cOOvfW
19r2SSQ2phSmy0vViz62PfnbIjYQZvYH1cCFgRhXYyG73yG1qpdLC3uj/argCKZH
P443Gfu0Rtxq3nI362/zIx3/g8h0ZmQDB02/buwo3nsZPlW4UhkRdme64upNAAmb
/hF6ssbwwueFnrEkIii3UYBd0fSHlf5yBByUrKxtPGlFs0Dgk+lUGeHV5K3Bz9DH
gGVQrEx/RSYYC1jYI9AHW2Y2FSbHeWsGjFM3ecizkIgO8Y09L7yAcxd7Pu6oN2M/
mLRrmP3JBxvvhBuamhZGIK5539KQpaTDR9vpDo/Ge/meEFNZpc0A9Oe7Ap5XGrLX
YJR6xSY3dqU/W/kT9KBEe6HJONm84paaw9mkEA==
-----END CERTIFICATE-----
