Certificate:
    Data:
        Version: 3 (0x2)
        Serial Number:
            7e:ed:dc:d1:10:6b:e5:69:5c:74:14:a1:44:13:08:48:1f:96:35:81
        Signature Algorithm: sha256WithRSAEncryption
        Issuer: C = NZ, ST = Waikato, L = Hamilton, O = Blue Leaf Software Ltd, CN = Blue Leaf Software CA
        Validity
            Not Before: Apr 29 20:02:16 2023 GMT
            Not After : May  9 20:02:16 2023 GMT
        Subject: C = NZ, ST = Waikato, L = Hamilton, O = "Blue Leaf Software, Ltd", CN = "Lumos HW, serialNumber = BLS-002"
        Subject Public Key Info:
            Public Key Algorithm: rsaEncryption
                Public-Key: (512 bit)
                Modulus:
                    00:97:cf:f7:a1:1b:8d:e2:fc:92:ba:3c:1f:6a:32:
                    98:06:49:b0:c4:d3:ce:71:85:0d:59:24:97:9f:75:
                    3a:50:f4:a2:5d:4a:3e:37:33:bc:2d:c7:b6:55:71:
                    da:03:8c:33:79:58:eb:6a:3b:36:1f:c9:f6:55:e6:
                    b9:10:1f:7d:6f
                Exponent: 65537 (0x10001)
        X509v3 extensions:
            X509v3 Basic Constraints: 
                CA:FALSE
            X509v3 Extended Key Usage: 
                TLS Web Server Authentication, TLS Web Client Authentication
            X509v3 Certificate Policies: critical
                Policy: 1.3.6.1.4.1.59430.2.1
                Policy: 1.3.6.1.4.1.59430.2.1.1
                Policy: 1.3.6.1.4.1.59430.2.1.2
            X509v3 Subject Key Identifier: 
                2A:8B:ED:6B:6C:C9:04:17:06:E0:0B:12:BC:E5:8F:19:BC:5F:BB:94
            X509v3 Authority Key Identifier: 
                1C:D0:70:E6:15:83:CD:8E:FB:08:71:37:00:05:95:4C:4E:93:82:6B
    Signature Algorithm: sha256WithRSAEncryption
    Signature Value:
        21:f2:ef:3c:68:30:de:10:0c:fa:53:d0:5e:a4:17:6e:05:e2:
        62:4b:12:e7:b9:ca:cf:b5:cf:ef:82:31:d5:99:f2:1e:5e:64:
        0f:84:1c:ae:50:24:14:98:0e:d4:5a:ea:16:b3:50:ec:a0:21:
        a0:5c:41:9f:ed:98:01:6d:88:15:b1:3a:c4:a6:73:43:ca:46:
        42:22:38:df:15:43:95:af:fc:6a:40:b7:58:94:05:01:99:3f:
        ce:f3:c2:ea:38:c9:ce:b0:09:ad:61:72:f5:c6:41:b6:8a:d5:
        9d:da:52:3e:5d:a9:10:90:37:12:27:9f:18:ef:94:cc:15:e1:
        ff:0b:d2:14:61:16:5b:e0:7e:c7:e0:08:01:78:bb:57:02:9c:
        2b:7b:db:00:4b:7c:a3:b6:02:87:de:b3:68:cc:a4:5a:2d:b8:
        29:4a:9d:e5:87:79:50:a9:86:e5:3c:7a:fb:e2:16:00:81:11:
        43:c9:bc:b0:85:49:75:24:54:39:dc:a5:87:80:75:67:7b:92:
        1c:9e:6e:6a:a1:bd:c3:f8:b6:e1:cc:32:88:86:fd:5a:3d:d4:
        63:73:79:ba:5d:12:cd:a2:cd:09:6f:ea:be:6e:39:1c:0e:4f:
        f1:cc:73:b9:7a:03:49:46:37:20:c2:f1:6a:09:c7:81:27:0a:
        1a:30:b0:af:47:ac:23:81:46:58:c8:7c:4d:a3:42:c1:98:d9:
        05:d8:03:b1:5a:e7:87:ba:b4:6c:e9:ff:00:b4:74:96:66:12:
        e0:02:67:1d:aa:df:c7:27:47:00:23:0f:fb:9f:50:88:77:87:
        66:5d:00:02:0d:a5:36:83:3a:17:00:af:2f:9c:27:3e:26:66:
        bc:2d:76:7b:e8:58:ec:eb:c0:7f:12:16:b3:f4:0d:78:15:2b:
        1e:a8:80:05:11:23:f6:00:f9:f7:18:12:83:e2:d5:b7:e1:6d:
        49:06:e6:04:04:e8:1c:af:cb:dc:ae:82:3b:aa:ab:62:8c:98:
        7b:24:8f:0d:3d:6c:41:d2:ad:29:61:f7:e7:08:2d:e3:7a:87:
        ec:3d:49:6f:37:57:4b:a9:45:73:73:14:20:4b:a1:27:af:97:
        62:ba:9f:d7:d6:8f:09:da:d1:4b:39:b1:95:42:c9:29:56:eb:
        38:1a:f4:ee:8a:3c:a2:2e:45:1d:4c:b3:30:c9:b3:3d:8d:c3:
        9c:c6:6f:0a:96:43:29:7b:4e:24:60:0b:95:57:9a:db:2a:69:
        7f:83:3b:37:53:1a:5f:77:dd:0c:24:4e:7f:27:3e:0c:ab:6a:
        22:c3:f9:71:1b:c5:20:98:d4:3d:a3:40:f5:30:60:2f:ed:a1:
        d4:7a:d5:6d:fe:89:a0:e7
-----BEGIN CERTIFICATE-----
MIIEYDCCAkigAwIBAgIUfu3c0RBr5WlcdBShRBMISB+WNYEwDQYJKoZIhvcNAQEL
BQAwczELMAkGA1UEBhMCTloxEDAOBgNVBAgMB1dhaWthdG8xETAPBgNVBAcMCEhh
bWlsdG9uMR8wHQYDVQQKDBZCbHVlIExlYWYgU29mdHdhcmUgTHRkMR4wHAYDVQQD
DBVCbHVlIExlYWYgU29mdHdhcmUgQ0EwHhcNMjMwNDI5MjAwMjE2WhcNMjMwNTA5
MjAwMjE2WjB/MQswCQYDVQQGEwJOWjEQMA4GA1UECAwHV2Fpa2F0bzERMA8GA1UE
BwwISGFtaWx0b24xIDAeBgNVBAoMF0JsdWUgTGVhZiBTb2Z0d2FyZSwgTHRkMSkw
JwYDVQQDDCBMdW1vcyBIVywgc2VyaWFsTnVtYmVyID0gQkxTLTAwMjBcMA0GCSqG
SIb3DQEBAQUAA0sAMEgCQQCXz/ehG43i/JK6PB9qMpgGSbDE085xhQ1ZJJefdTpQ
9KJdSj43M7wtx7ZVcdoDjDN5WOtqOzYfyfZV5rkQH31vAgMBAAGjgacwgaQwCQYD
VR0TBAIwADAdBgNVHSUEFjAUBggrBgEFBQcDAQYIKwYBBQUHAwIwOAYDVR0gAQH/
BC4wLDAMBgorBgEEAYPQJgIBMA0GCysGAQQBg9AmAgEBMA0GCysGAQQBg9AmAgEC
MB0GA1UdDgQWBBQqi+1rbMkEFwbgCxK85Y8ZvF+7lDAfBgNVHSMEGDAWgBQc0HDm
FYPNjvsIcTcABZVMTpOCazANBgkqhkiG9w0BAQsFAAOCAgEAIfLvPGgw3hAM+lPQ
XqQXbgXiYksS57nKz7XP74Ix1ZnyHl5kD4QcrlAkFJgO1FrqFrNQ7KAhoFxBn+2Y
AW2IFbE6xKZzQ8pGQiI43xVDla/8akC3WJQFAZk/zvPC6jjJzrAJrWFy9cZBtorV
ndpSPl2pEJA3EiefGO+UzBXh/wvSFGEWW+B+x+AIAXi7VwKcK3vbAEt8o7YCh96z
aMykWi24KUqd5Yd5UKmG5Tx6++IWAIERQ8m8sIVJdSRUOdylh4B1Z3uSHJ5uaqG9
w/i24cwyiIb9Wj3UY3N5ul0SzaLNCW/qvm45HA5P8cxzuXoDSUY3IMLxagnHgScK
GjCwr0esI4FGWMh8TaNCwZjZBdgDsVrnh7q0bOn/ALR0lmYS4AJnHarfxydHACMP
+59QiHeHZl0AAg2lNoM6FwCvL5wnPiZmvC12e+hY7OvAfxIWs/QNeBUrHqiABREj
9gD59xgSg+LVt+FtSQbmBAToHK/L3K6CO6qrYoyYeySPDT1sQdKtKWH35wgt43qH
7D1JbzdXS6lFc3MUIEuhJ6+XYrqf19aPCdrRSzmxlULJKVbrOBr07oo8oi5FHUyz
MMmzPY3DnMZvCpZDKXtOJGALlVea2yppf4M7N1MaX3fdDCROfyc+DKtqIsP5cRvF
IJjUPaNA9TBgL+2h1HrVbf6JoOc=
-----END CERTIFICATE-----
