Certificate:
    Data:
        Version: 3 (0x2)
        Serial Number:
            3c:7e:1e:89:08:d9:99:90:a1:c1:16:66:77:6b:49:30:8b:48:ea:d3
        Signature Algorithm: sha256WithRSAEncryption
        Issuer: C = NZ, ST = Waikato, L = Hamilton, O = Blue Leaf Software Ltd, CN = Blue Leaf Software CA
        Validity
            Not Before: May 11 04:15:52 2023 GMT
            Not After : May 21 04:15:52 2023 GMT
        Subject: C = NZ, ST = Waikato, L = Hamilton, O = "Blue Leaf Software, Ltd", CN = "Lumos HW, SN = BLS-002"
        Subject Public Key Info:
            Public Key Algorithm: rsaEncryption
                Public-Key: (512 bit)
                Modulus:
                    00:b3:b4:fa:8e:c1:7a:e8:f4:29:82:d2:68:d2:c1:
                    e0:39:63:5b:73:86:1f:87:e4:e2:86:35:5d:f5:95:
                    40:b3:19:7d:dd:2b:28:37:69:24:ff:66:c0:7d:c8:
                    fe:4d:a3:23:e7:7e:23:d2:a9:a7:c4:49:82:98:d3:
                    c3:c1:8d:26:8d
                Exponent: 65537 (0x10001)
        X509v3 extensions:
            X509v3 Basic Constraints: 
                CA:FALSE
            X509v3 Extended Key Usage: 
                TLS Web Server Authentication, TLS Web Client Authentication
            X509v3 Certificate Policies: critical
                Policy: 1.3.6.1.4.1.59430.2.1
                Policy: 1.3.6.1.4.1.59430.2.1.1
                Policy: 1.3.6.1.4.1.59430.2.1.2
            X509v3 Subject Key Identifier: 
                4C:F8:60:9E:6F:6E:9F:DE:D6:76:BE:5B:23:8F:09:5A:2E:43:41:4C
            X509v3 Authority Key Identifier: 
                1C:D0:70:E6:15:83:CD:8E:FB:08:71:37:00:05:95:4C:4E:93:82:6B
    Signature Algorithm: sha256WithRSAEncryption
    Signature Value:
        81:bc:ba:e4:d0:94:3f:82:6a:0f:d3:56:92:b1:8d:02:72:0d:
        b9:1d:f9:43:8c:61:fb:c0:80:ca:cd:f5:81:b9:91:3e:3f:f3:
        a5:a5:90:85:1b:80:42:f2:0f:7d:3e:38:77:9c:38:b1:51:6d:
        fb:63:a7:ec:76:91:d1:29:79:79:d2:54:08:33:21:5a:ff:c5:
        b4:e2:55:0e:65:c5:8a:5d:ce:e3:63:88:46:9f:c6:55:a1:70:
        b2:be:63:b1:05:73:e1:05:e8:05:e3:77:db:31:29:dd:3e:34:
        fc:b0:4a:f0:0f:d5:60:12:ff:13:1a:27:73:ae:c6:75:28:c3:
        8d:53:61:81:42:68:e5:c9:9a:8e:c4:b2:8c:81:98:64:9b:2b:
        0e:d9:ac:1a:c8:30:a1:cd:ae:ba:2a:b6:f3:20:7c:ed:85:45:
        21:10:f4:bd:28:46:de:53:97:72:fc:66:5e:7b:f3:28:ac:7d:
        15:0b:86:90:3b:71:05:7f:c8:9d:1e:8e:3f:13:6d:5d:13:42:
        5a:c2:4e:33:c7:07:91:e1:46:20:e2:3a:a5:8d:01:88:df:ab:
        b5:22:09:97:b0:5a:56:0c:15:61:f9:60:64:df:5e:5d:bd:75:
        b6:2b:83:f4:17:c2:e0:5b:21:82:b3:b7:be:64:95:06:dd:dd:
        1a:6b:55:53:2a:99:32:74:8f:9b:be:c7:d9:f1:a6:fe:ad:a4:
        18:37:df:f6:aa:af:0d:7e:a3:a8:c6:b0:d4:1e:13:43:b9:2e:
        a1:3a:47:f8:95:08:1b:45:c9:f0:1e:89:4d:92:0a:fa:80:34:
        b8:e2:71:9c:9e:16:78:d7:56:c0:cb:55:c0:3d:77:51:48:de:
        9a:62:8e:14:bb:54:8b:2d:65:29:eb:6d:44:30:75:f5:1d:ec:
        45:0d:62:b7:54:04:44:de:ac:00:35:b0:38:64:e8:81:0d:62:
        cf:a2:75:3a:5b:27:79:39:fe:e6:16:5a:dd:3f:a8:51:0d:ee:
        3d:be:49:fb:bd:9f:eb:e2:6b:aa:a3:12:04:c6:cf:6f:e7:8e:
        2f:57:ad:42:6d:df:ad:ba:ce:62:26:ff:99:f7:58:06:92:87:
        f4:f9:be:21:51:ad:34:f7:6a:5c:59:52:31:7f:85:bc:c9:c4:
        92:ed:da:3b:f6:6b:63:16:f5:61:05:3a:a4:ce:4a:3b:d2:b0:
        2e:18:d9:73:97:1f:40:d0:55:43:01:4f:ad:6c:ca:30:4a:8c:
        9d:3a:3a:ec:36:5c:86:be:32:7f:2a:5f:67:d5:c7:2d:63:d2:
        40:28:5d:dd:07:73:b3:a3:d1:18:bd:6b:16:b1:06:78:1e:8e:
        82:4d:e3:82:ab:e6:49:43
-----BEGIN CERTIFICATE-----
MIIEVjCCAj6gAwIBAgIUPH4eiQjZmZChwRZmd2tJMItI6tMwDQYJKoZIhvcNAQEL
BQAwczELMAkGA1UEBhMCTloxEDAOBgNVBAgMB1dhaWthdG8xETAPBgNVBAcMCEhh
bWlsdG9uMR8wHQYDVQQKDBZCbHVlIExlYWYgU29mdHdhcmUgTHRkMR4wHAYDVQQD
DBVCbHVlIExlYWYgU29mdHdhcmUgQ0EwHhcNMjMwNTExMDQxNTUyWhcNMjMwNTIx
MDQxNTUyWjB1MQswCQYDVQQGEwJOWjEQMA4GA1UECAwHV2Fpa2F0bzERMA8GA1UE
BwwISGFtaWx0b24xIDAeBgNVBAoMF0JsdWUgTGVhZiBTb2Z0d2FyZSwgTHRkMR8w
HQYDVQQDDBZMdW1vcyBIVywgU04gPSBCTFMtMDAyMFwwDQYJKoZIhvcNAQEBBQAD
SwAwSAJBALO0+o7Beuj0KYLSaNLB4DljW3OGH4fk4oY1XfWVQLMZfd0rKDdpJP9m
wH3I/k2jI+d+I9Kpp8RJgpjTw8GNJo0CAwEAAaOBpzCBpDAJBgNVHRMEAjAAMB0G
A1UdJQQWMBQGCCsGAQUFBwMBBggrBgEFBQcDAjA4BgNVHSABAf8ELjAsMAwGCisG
AQQBg9AmAgEwDQYLKwYBBAGD0CYCAQEwDQYLKwYBBAGD0CYCAQIwHQYDVR0OBBYE
FEz4YJ5vbp/e1na+WyOPCVouQ0FMMB8GA1UdIwQYMBaAFBzQcOYVg82O+whxNwAF
lUxOk4JrMA0GCSqGSIb3DQEBCwUAA4ICAQCBvLrk0JQ/gmoP01aSsY0Ccg25HflD
jGH7wIDKzfWBuZE+P/OlpZCFG4BC8g99Pjh3nDixUW37Y6fsdpHRKXl50lQIMyFa
/8W04lUOZcWKXc7jY4hGn8ZVoXCyvmOxBXPhBegF43fbMSndPjT8sErwD9VgEv8T
GidzrsZ1KMONU2GBQmjlyZqOxLKMgZhkmysO2awayDChza66KrbzIHzthUUhEPS9
KEbeU5dy/GZee/MorH0VC4aQO3EFf8idHo4/E21dE0Jawk4zxweR4UYg4jqljQGI
36u1IgmXsFpWDBVh+WBk315dvXW2K4P0F8LgWyGCs7e+ZJUG3d0aa1VTKpkydI+b
vsfZ8ab+raQYN9/2qq8NfqOoxrDUHhNDuS6hOkf4lQgbRcnwHolNkgr6gDS44nGc
nhZ411bAy1XAPXdRSN6aYo4Uu1SLLWUp621EMHX1HexFDWK3VARE3qwANbA4ZOiB
DWLPonU6Wyd5Of7mFlrdP6hRDe49vkn7vZ/r4muqoxIExs9v544vV61Cbd+tus5i
Jv+Z91gGkof0+b4hUa0092pcWVIxf4W8ycSS7do79mtjFvVhBTqkzko70rAuGNlz
lx9A0FVDAU+tbMowSoydOjrsNlyGvjJ/Kl9n1cctY9JAKF3dB3Ozo9EYvWsWsQZ4
Ho6CTeOCq+ZJQw==
-----END CERTIFICATE-----
