Certificate:
    Data:
        Version: 3 (0x2)
        Serial Number:
            63:c1:2f:d9:0b:0d:b7:3b:71:32:27:27:d5:3e:52:53:d9:40:99:e6
        Signature Algorithm: sha256WithRSAEncryption
        Issuer: C=NZ, ST=Waikato, L=Hamilton, O=Blue Leaf Software Ltd, CN=Blue Leaf Software CA
        Validity
            Not Before: May  4 20:55:42 2023 GMT
            Not After : May 14 20:55:42 2023 GMT
        Subject: C=NZ, ST=Waikato, L=Hamilton, O=Blue Leaf Software, Ltd, CN=Lumos HW, SN = BLS-002
        Subject Public Key Info:
            Public Key Algorithm: rsaEncryption
                Public-Key: (512 bit)
                Modulus:
                    00:b1:00:1f:b1:a8:2c:af:8f:a0:f2:b4:74:cd:92:
                    3a:6e:37:a2:ea:d4:7f:45:39:5c:6a:f0:f3:e7:b5:
                    fd:6d:4c:0b:f2:bd:95:e0:d1:a7:2d:fe:99:b5:67:
                    b4:93:b0:83:47:94:7b:a8:2a:b3:7d:5d:45:6b:67:
                    6e:ea:1e:d5:85
                Exponent: 65537 (0x10001)
        X509v3 extensions:
            X509v3 Basic Constraints: 
                CA:FALSE
            X509v3 Extended Key Usage: 
                TLS Web Server Authentication, TLS Web Client Authentication
            X509v3 Certificate Policies: critical
                Policy: 1.3.6.1.4.1.59430.2.1
                Policy: 1.3.6.1.4.1.59430.2.1.1
                Policy: 1.3.6.1.4.1.59430.2.1.2
            X509v3 Subject Key Identifier: 
                1D:37:05:58:95:89:C2:AB:2A:33:10:92:8C:C0:F9:74:49:2A:AD:E4
            X509v3 Authority Key Identifier: 
                1C:D0:70:E6:15:83:CD:8E:FB:08:71:37:00:05:95:4C:4E:93:82:6B
    Signature Algorithm: sha256WithRSAEncryption
    Signature Value:
        1a:d7:44:86:c7:61:94:06:53:b4:7c:2f:f6:07:03:37:61:a1:
        c5:27:be:d4:08:0c:16:46:de:bc:cf:b0:9b:5f:62:91:3f:c0:
        68:17:fd:d2:df:f8:e8:ea:99:c3:45:69:bd:45:68:98:b3:f8:
        18:16:bc:e5:3c:6b:d5:16:9d:de:d8:d4:03:65:c4:7f:26:4d:
        90:f5:aa:02:86:35:ac:89:9d:5e:16:1c:2d:a6:0b:68:41:ef:
        04:53:40:26:be:3c:b6:b7:28:33:28:a0:bd:72:b1:4b:45:3b:
        74:92:e5:df:8b:1a:8f:38:0a:a3:41:6b:ec:0f:99:7c:ac:6d:
        ee:20:f6:cf:37:10:d8:99:12:70:6f:76:e7:4b:7a:5b:a0:1a:
        2f:02:57:a7:2b:b1:fe:af:3a:3f:da:80:b1:ac:54:b3:94:60:
        98:22:39:8d:d1:6b:7d:06:ec:b7:a9:42:4b:96:3f:55:a5:c9:
        14:e2:c5:63:28:c5:a8:73:e9:86:37:e6:65:07:40:48:4f:b4:
        7f:a5:59:31:1e:f7:d8:6f:88:8d:89:1d:fd:e9:db:e4:c3:55:
        89:1c:2a:2a:bd:e1:57:16:6b:d9:ba:7e:e1:60:50:33:97:25:
        f2:a9:1b:2a:ad:cf:ea:f5:80:c4:37:4b:6b:e0:28:4f:7a:eb:
        0c:40:37:9a:52:53:8b:a0:77:6e:94:74:47:ac:f1:60:7e:b9:
        2a:6e:86:48:53:82:1f:6f:9f:34:b0:09:1f:fd:c6:2b:8c:96:
        2c:23:b3:39:42:9d:d5:da:bf:1c:05:9f:f0:37:b3:06:46:3c:
        cd:7e:6a:b3:74:da:ea:8d:dd:b0:8a:21:1c:79:5f:ec:b7:82:
        1d:2f:b4:ad:a8:d6:8b:ac:f4:9e:ec:e1:6a:a0:9f:c0:a4:92:
        34:f3:03:ad:c5:e4:1d:58:50:f1:1d:49:3f:c4:06:01:34:9b:
        ba:f0:d0:73:e7:1f:ae:27:59:f2:cf:d8:29:e6:52:da:f6:d9:
        c1:f9:30:89:92:59:14:0f:d9:79:60:e2:8a:95:5d:f2:a4:42:
        69:16:ac:aa:4a:33:c0:f5:d6:88:cf:d9:e9:08:d8:e5:c6:7b:
        0e:e9:5a:8c:1a:d7:1f:68:3c:6e:2e:ff:db:46:17:25:43:31:
        06:ce:a7:e6:e4:65:b0:f2:43:79:ad:4e:b2:97:5e:0b:30:c0:
        04:39:95:10:63:67:8a:81:06:95:5e:4e:54:c2:27:7d:8c:93:
        25:7a:09:60:7d:aa:b2:bf:ce:f2:3d:a8:8b:fe:f9:6e:5e:0d:
        16:73:ec:20:41:83:b1:74:a3:7b:5c:83:1f:f5:86:60:97:84:
        b2:6a:d1:b6:09:7f:70:13
-----BEGIN CERTIFICATE-----
MIIEVjCCAj6gAwIBAgIUY8Ev2QsNtztxMicn1T5SU9lAmeYwDQYJKoZIhvcNAQEL
BQAwczELMAkGA1UEBhMCTloxEDAOBgNVBAgMB1dhaWthdG8xETAPBgNVBAcMCEhh
bWlsdG9uMR8wHQYDVQQKDBZCbHVlIExlYWYgU29mdHdhcmUgTHRkMR4wHAYDVQQD
DBVCbHVlIExlYWYgU29mdHdhcmUgQ0EwHhcNMjMwNTA0MjA1NTQyWhcNMjMwNTE0
MjA1NTQyWjB1MQswCQYDVQQGEwJOWjEQMA4GA1UECAwHV2Fpa2F0bzERMA8GA1UE
BwwISGFtaWx0b24xIDAeBgNVBAoMF0JsdWUgTGVhZiBTb2Z0d2FyZSwgTHRkMR8w
HQYDVQQDDBZMdW1vcyBIVywgU04gPSBCTFMtMDAyMFwwDQYJKoZIhvcNAQEBBQAD
SwAwSAJBALEAH7GoLK+PoPK0dM2SOm43ourUf0U5XGrw8+e1/W1MC/K9leDRpy3+
mbVntJOwg0eUe6gqs31dRWtnbuoe1YUCAwEAAaOBpzCBpDAJBgNVHRMEAjAAMB0G
A1UdJQQWMBQGCCsGAQUFBwMBBggrBgEFBQcDAjA4BgNVHSABAf8ELjAsMAwGCisG
AQQBg9AmAgEwDQYLKwYBBAGD0CYCAQEwDQYLKwYBBAGD0CYCAQIwHQYDVR0OBBYE
FB03BViVicKrKjMQkozA+XRJKq3kMB8GA1UdIwQYMBaAFBzQcOYVg82O+whxNwAF
lUxOk4JrMA0GCSqGSIb3DQEBCwUAA4ICAQAa10SGx2GUBlO0fC/2BwM3YaHFJ77U
CAwWRt68z7CbX2KRP8BoF/3S3/jo6pnDRWm9RWiYs/gYFrzlPGvVFp3e2NQDZcR/
Jk2Q9aoChjWsiZ1eFhwtpgtoQe8EU0Amvjy2tygzKKC9crFLRTt0kuXfixqPOAqj
QWvsD5l8rG3uIPbPNxDYmRJwb3bnS3pboBovAlenK7H+rzo/2oCxrFSzlGCYIjmN
0Wt9Buy3qUJLlj9VpckU4sVjKMWoc+mGN+ZlB0BIT7R/pVkxHvfYb4iNiR396dvk
w1WJHCoqveFXFmvZun7hYFAzlyXyqRsqrc/q9YDEN0tr4ChPeusMQDeaUlOLoHdu
lHRHrPFgfrkqboZIU4Ifb580sAkf/cYrjJYsI7M5Qp3V2r8cBZ/wN7MGRjzNfmqz
dNrqjd2wiiEceV/st4IdL7StqNaLrPSe7OFqoJ/ApJI08wOtxeQdWFDxHUk/xAYB
NJu68NBz5x+uJ1nyz9gp5lLa9tnB+TCJklkUD9l5YOKKlV3ypEJpFqyqSjPA9daI
z9npCNjlxnsO6VqMGtcfaDxuLv/bRhclQzEGzqfm5GWw8kN5rU6yl14LMMAEOZUQ
Y2eKgQaVXk5Uwid9jJMleglgfaqyv87yPaiL/vluXg0Wc+wgQYOxdKN7XIMf9YZg
l4SyatG2CX9wEw==
-----END CERTIFICATE-----
