Certificate:
    Data:
        Version: 3 (0x2)
        Serial Number:
            4a:82:0c:29:b6:5a:d0:5b:33:8b:5e:97:62:b6:1a:25:a2:fa:39:4a
        Signature Algorithm: sha256WithRSAEncryption
        Issuer: C = NZ, ST = Waikato, L = Hamilton, O = Blue Leaf Software Ltd, CN = Blue Leaf Software CA
        Validity
            Not Before: May 11 18:55:03 2023 GMT
            Not After : May 21 18:55:03 2023 GMT
        Subject: C = NZ, ST = Waikato, L = Hamilton, O = "Blue Leaf Software, Ltd", CN = "Lumos HW, SN = BLS-002"
        Subject Public Key Info:
            Public Key Algorithm: rsaEncryption
                Public-Key: (512 bit)
                Modulus:
                    00:8f:0f:16:82:34:54:71:69:6f:bc:cf:ea:23:e6:
                    d6:ed:bb:50:f8:40:b6:6c:95:d1:27:ff:51:41:70:
                    f0:e7:cd:bc:dd:b4:d9:2e:7f:f7:67:ce:4a:3e:2b:
                    83:3d:c1:0d:02:32:aa:fd:48:93:c0:26:60:44:a6:
                    2c:7c:d9:9d:65
                Exponent: 65537 (0x10001)
        X509v3 extensions:
            X509v3 Basic Constraints: 
                CA:FALSE
            X509v3 Extended Key Usage: 
                TLS Web Server Authentication, TLS Web Client Authentication
            X509v3 Certificate Policies: critical
                Policy: 1.3.6.1.4.1.59430.2.1
                Policy: 1.3.6.1.4.1.59430.2.1.1
                Policy: 1.3.6.1.4.1.59430.2.1.2
            X509v3 Subject Key Identifier: 
                57:BB:2B:98:FB:61:D1:0C:28:65:0C:F8:5E:CA:A5:DF:FA:E6:45:7C
            X509v3 Authority Key Identifier: 
                1C:D0:70:E6:15:83:CD:8E:FB:08:71:37:00:05:95:4C:4E:93:82:6B
    Signature Algorithm: sha256WithRSAEncryption
    Signature Value:
        ab:2e:85:cc:15:5e:90:fe:b0:b5:81:21:b8:db:fb:36:34:9a:
        1d:4f:5f:d0:40:d3:1b:ad:f1:d7:d0:a8:d0:f4:b1:ac:90:26:
        4d:4b:fe:4f:de:42:57:ae:25:24:c5:24:38:b1:fb:98:dc:52:
        ca:f7:bc:ee:10:d5:60:44:60:16:1d:9c:34:38:b6:94:f2:52:
        7c:cf:ab:65:14:3c:61:a4:0b:f3:e0:f7:6e:66:38:f8:19:da:
        ed:53:db:dd:80:54:b4:71:4d:ac:3c:ff:63:85:15:86:be:6e:
        6e:01:cf:9f:ce:00:61:dd:c3:ef:27:12:02:83:59:13:e5:74:
        3a:df:d3:6d:41:f8:9f:17:c2:df:9b:63:b9:0f:e6:dc:16:3c:
        d4:cf:dc:91:a5:6c:d5:0a:19:f6:3b:ce:9d:4f:d7:e6:88:82:
        45:db:b1:82:47:21:07:56:3a:99:b5:f4:b0:a5:6d:b1:06:df:
        8e:35:61:ca:a8:e7:f9:f8:62:e5:47:3b:3b:3e:c8:79:4b:02:
        07:68:dc:39:a9:51:fb:5c:8b:66:83:e6:7f:43:47:96:f6:68:
        a7:ca:d3:93:e2:ec:ef:71:0a:c2:a1:41:94:51:69:5d:2f:6f:
        c8:b3:3e:9d:dd:fe:88:8f:d2:59:78:d8:bf:54:3e:0c:55:d3:
        1f:bf:bc:08:02:f1:82:76:56:5c:d5:55:e0:fd:3a:22:15:dc:
        32:31:85:fa:ea:17:b1:97:22:a5:bf:9d:f4:13:0b:aa:1f:a9:
        50:80:b0:1b:1c:7a:b8:66:83:f4:77:2d:00:56:7b:15:fe:51:
        78:cc:b7:78:8c:32:5f:ae:4c:2b:6d:eb:8c:0e:d1:1b:62:d1:
        d1:80:f3:72:a3:ba:33:b8:8a:83:1c:dd:ff:ea:10:ea:1d:df:
        4a:4d:c4:49:66:12:71:b7:2b:e3:18:a9:89:9d:b9:88:52:38:
        27:c5:62:2c:0c:d8:c6:cc:48:db:ec:be:74:6a:79:f0:f1:1d:
        4f:2a:5d:35:58:4d:2b:3a:60:49:f9:8d:b4:85:57:48:7a:57:
        5e:98:0c:c2:65:31:20:b3:46:1f:68:8c:1a:f6:15:b5:a9:3f:
        6c:46:cc:80:ef:b2:54:ec:aa:8e:c1:ca:80:39:86:72:77:bb:
        e7:87:6d:84:83:ca:21:82:06:a7:62:91:2b:e9:86:29:cc:b3:
        98:0c:47:4b:d2:74:36:fc:4e:8b:92:33:ec:48:1f:c3:33:8b:
        f5:7c:20:69:08:06:be:8c:c7:8a:7e:da:40:66:40:9c:1f:66:
        bc:8b:e8:2a:dd:ed:96:67:28:97:eb:6e:b8:e5:8a:3b:02:15:
        51:9c:be:e1:bc:28:9a:69
-----BEGIN CERTIFICATE-----
MIIEVjCCAj6gAwIBAgIUSoIMKbZa0Fszi16XYrYaJaL6OUowDQYJKoZIhvcNAQEL
BQAwczELMAkGA1UEBhMCTloxEDAOBgNVBAgMB1dhaWthdG8xETAPBgNVBAcMCEhh
bWlsdG9uMR8wHQYDVQQKDBZCbHVlIExlYWYgU29mdHdhcmUgTHRkMR4wHAYDVQQD
DBVCbHVlIExlYWYgU29mdHdhcmUgQ0EwHhcNMjMwNTExMTg1NTAzWhcNMjMwNTIx
MTg1NTAzWjB1MQswCQYDVQQGEwJOWjEQMA4GA1UECAwHV2Fpa2F0bzERMA8GA1UE
BwwISGFtaWx0b24xIDAeBgNVBAoMF0JsdWUgTGVhZiBTb2Z0d2FyZSwgTHRkMR8w
HQYDVQQDDBZMdW1vcyBIVywgU04gPSBCTFMtMDAyMFwwDQYJKoZIhvcNAQEBBQAD
SwAwSAJBAI8PFoI0VHFpb7zP6iPm1u27UPhAtmyV0Sf/UUFw8OfNvN202S5/92fO
Sj4rgz3BDQIyqv1Ik8AmYESmLHzZnWUCAwEAAaOBpzCBpDAJBgNVHRMEAjAAMB0G
A1UdJQQWMBQGCCsGAQUFBwMBBggrBgEFBQcDAjA4BgNVHSABAf8ELjAsMAwGCisG
AQQBg9AmAgEwDQYLKwYBBAGD0CYCAQEwDQYLKwYBBAGD0CYCAQIwHQYDVR0OBBYE
FFe7K5j7YdEMKGUM+F7Kpd/65kV8MB8GA1UdIwQYMBaAFBzQcOYVg82O+whxNwAF
lUxOk4JrMA0GCSqGSIb3DQEBCwUAA4ICAQCrLoXMFV6Q/rC1gSG42/s2NJodT1/Q
QNMbrfHX0KjQ9LGskCZNS/5P3kJXriUkxSQ4sfuY3FLK97zuENVgRGAWHZw0OLaU
8lJ8z6tlFDxhpAvz4PduZjj4GdrtU9vdgFS0cU2sPP9jhRWGvm5uAc+fzgBh3cPv
JxICg1kT5XQ639NtQfifF8Lfm2O5D+bcFjzUz9yRpWzVChn2O86dT9fmiIJF27GC
RyEHVjqZtfSwpW2xBt+ONWHKqOf5+GLlRzs7Psh5SwIHaNw5qVH7XItmg+Z/Q0eW
9minytOT4uzvcQrCoUGUUWldL2/Isz6d3f6Ij9JZeNi/VD4MVdMfv7wIAvGCdlZc
1VXg/ToiFdwyMYX66hexlyKlv530EwuqH6lQgLAbHHq4ZoP0dy0AVnsV/lF4zLd4
jDJfrkwrbeuMDtEbYtHRgPNyo7ozuIqDHN3/6hDqHd9KTcRJZhJxtyvjGKmJnbmI
UjgnxWIsDNjGzEjb7L50annw8R1PKl01WE0rOmBJ+Y20hVdIeldemAzCZTEgs0Yf
aIwa9hW1qT9sRsyA77JU7KqOwcqAOYZyd7vnh22Eg8ohgganYpEr6YYpzLOYDEdL
0nQ2/E6LkjPsSB/DM4v1fCBpCAa+jMeKftpAZkCcH2a8i+gq3e2WZyiX62645Yo7
AhVRnL7hvCiaaQ==
-----END CERTIFICATE-----
