Certificate:
    Data:
        Version: 3 (0x2)
        Serial Number:
            4a:29:9c:7a:6e:3c:87:da:76:78:da:48:53:3e:10:e0:fb:ea:96:15
        Signature Algorithm: sha256WithRSAEncryption
        Issuer: C = NZ, ST = Waikato, L = Hamilton, O = Blue Leaf Software Ltd, CN = Blue Leaf Software CA
        Validity
            Not Before: Apr 22 08:49:32 2023 GMT
            Not After : May  2 08:49:32 2023 GMT
        Subject: C = NZ, ST = Waikato, L = Hamilton, O = "Blue Leaf Software, Ltd", CN = "Lumos HW, serialNumber = BLS-002"
        Subject Public Key Info:
            Public Key Algorithm: rsaEncryption
                Public-Key: (2048 bit)
                Modulus:
                    00:99:17:47:71:75:1d:d1:63:1d:f7:f5:45:d3:2d:
                    f9:e8:f0:3e:01:f2:68:15:fd:0f:d6:eb:ba:0b:de:
                    a5:29:b0:71:80:6f:18:1d:dd:12:e8:bc:38:36:32:
                    41:38:16:eb:78:60:79:dd:b5:b1:4e:23:cf:09:bd:
                    b1:02:a3:69:9a:7f:62:8e:2c:0e:68:b9:a1:06:5c:
                    6e:0d:7f:c4:6f:bc:12:dc:a1:46:7d:f8:e4:6c:53:
                    5c:d7:a8:09:8a:ab:d6:a1:6b:4e:e8:e7:8a:67:13:
                    47:69:6a:cd:27:cd:39:22:e5:20:38:bf:17:3c:30:
                    45:2c:60:10:c6:60:b5:fa:e6:c2:7e:fc:a8:a2:25:
                    74:b2:e9:37:4b:75:eb:76:a0:a4:0e:6f:0e:fe:58:
                    31:13:fe:ae:d7:9d:a5:c2:bd:7b:91:b0:70:2c:36:
                    38:1b:94:79:c5:d8:25:70:2f:0e:1c:24:92:41:1a:
                    36:e2:42:01:c0:1e:40:f2:e1:b5:78:7e:eb:1c:6b:
                    ef:e0:0c:4d:06:64:ec:f1:48:a6:58:bb:16:ab:20:
                    19:82:9d:59:05:92:51:f0:8c:39:32:4c:07:e0:fa:
                    77:2a:b2:03:94:25:9e:c9:de:a4:5e:40:0c:dd:ae:
                    b1:1b:b4:e7:eb:b2:c3:16:e3:24:e9:65:d4:83:75:
                    b7:03
                Exponent: 65537 (0x10001)
        X509v3 extensions:
            X509v3 Basic Constraints: 
                CA:FALSE
            X509v3 Extended Key Usage: 
                TLS Web Server Authentication, TLS Web Client Authentication
            X509v3 Certificate Policies: critical
                Policy: 1.3.6.1.4.1.59430.2.1
                Policy: 1.3.6.1.4.1.59430.2.1.1
                Policy: 1.3.6.1.4.1.59430.2.1.2
            X509v3 Subject Key Identifier: 
                1C:49:34:F1:3C:C0:69:CA:98:FA:0C:B2:AC:BC:47:84:4E:07:85:8C
            X509v3 Authority Key Identifier: 
                1C:D0:70:E6:15:83:CD:8E:FB:08:71:37:00:05:95:4C:4E:93:82:6B
    Signature Algorithm: sha256WithRSAEncryption
    Signature Value:
        20:0e:42:38:8d:09:68:b5:de:bb:69:6c:a5:e3:fc:cc:a0:75:
        0d:09:e5:2f:61:bf:e5:75:91:7c:4b:c0:43:e3:a1:1b:93:61:
        1b:3a:a1:fa:22:70:36:4d:43:30:50:f7:50:0b:ec:65:b4:a6:
        cf:87:8b:18:ac:20:b3:d4:f8:13:82:c2:a5:30:0b:27:e1:56:
        90:9c:f6:ea:8d:19:f3:30:64:82:3e:82:ea:fd:0d:90:98:e2:
        3b:b3:b5:10:54:d8:99:1e:91:d8:40:35:0c:11:cc:7b:fd:00:
        7c:e5:0e:af:bb:d9:b8:80:a0:09:ec:eb:b3:28:c1:d1:62:6d:
        e8:16:7d:1c:40:29:c0:71:44:0a:40:41:bb:30:cd:7a:4b:19:
        b3:b5:96:3c:6e:03:0c:93:78:dc:22:70:4f:54:f7:3c:9a:7b:
        39:58:2a:a6:4d:67:62:92:55:e1:df:24:ba:9b:4e:0f:a6:cc:
        2b:2e:3e:04:ad:80:a6:82:4c:db:d5:3f:9c:ac:70:f0:c2:3d:
        9f:e3:d0:d6:8f:b9:90:0f:7d:28:2e:2e:f4:0d:f5:5c:e2:13:
        52:09:9f:87:52:db:bd:c9:60:97:58:83:43:64:b5:dd:5d:61:
        2c:3f:28:c9:56:3e:02:b7:e7:a7:ff:79:7b:46:de:e0:6f:f7:
        fd:1a:0f:c5:42:c2:4d:31:d0:56:80:20:da:71:4f:3c:6c:d4:
        04:39:17:03:65:2b:05:ce:19:7a:b7:64:e0:df:54:b7:44:2b:
        5e:8f:51:ca:bb:e8:e9:a8:92:01:f6:5f:71:da:d8:c7:de:0a:
        e1:9a:00:1b:33:fd:37:a3:ca:c0:9b:69:f7:ff:14:cc:b5:4f:
        e4:e3:12:79:a8:02:e6:18:26:a6:40:bc:bc:ac:b1:7d:f1:af:
        b9:6a:15:e1:3d:75:4b:2d:9c:54:25:ca:2d:d3:77:c9:35:bb:
        bc:6e:aa:39:94:2d:6d:59:0c:ea:e3:2e:8a:31:fd:35:dd:9c:
        d4:ec:f0:c0:57:fb:67:1b:de:bd:d9:99:d2:65:75:5f:53:ee:
        84:41:e7:5b:86:ec:05:6b:1b:2a:23:f8:1c:49:ca:28:5f:7d:
        d0:3d:f7:24:5a:4b:fa:14:f6:f7:9d:ab:c6:83:4b:dd:9f:38:
        95:3f:fb:43:42:0b:b2:e6:de:89:8d:3b:b1:b0:16:b8:63:b3:
        45:53:54:5d:0d:1d:8c:22:e5:a2:71:97:fa:b8:19:d6:56:1b:
        16:68:9b:c2:17:4c:28:62:e0:55:75:73:1d:7c:d2:75:2d:a5:
        ee:97:7c:5a:09:aa:54:14:5a:f7:ea:05:2b:56:6f:41:cb:68:
        31:41:58:85:0e:6e:12:61
-----BEGIN CERTIFICATE-----
MIIFKDCCAxCgAwIBAgIUSimcem48h9p2eNpIUz4Q4PvqlhUwDQYJKoZIhvcNAQEL
BQAwczELMAkGA1UEBhMCTloxEDAOBgNVBAgMB1dhaWthdG8xETAPBgNVBAcMCEhh
bWlsdG9uMR8wHQYDVQQKDBZCbHVlIExlYWYgU29mdHdhcmUgTHRkMR4wHAYDVQQD
DBVCbHVlIExlYWYgU29mdHdhcmUgQ0EwHhcNMjMwNDIyMDg0OTMyWhcNMjMwNTAy
MDg0OTMyWjB/MQswCQYDVQQGEwJOWjEQMA4GA1UECAwHV2Fpa2F0bzERMA8GA1UE
BwwISGFtaWx0b24xIDAeBgNVBAoMF0JsdWUgTGVhZiBTb2Z0d2FyZSwgTHRkMSkw
JwYDVQQDDCBMdW1vcyBIVywgc2VyaWFsTnVtYmVyID0gQkxTLTAwMjCCASIwDQYJ
KoZIhvcNAQEBBQADggEPADCCAQoCggEBAJkXR3F1HdFjHff1RdMt+ejwPgHyaBX9
D9brugvepSmwcYBvGB3dEui8ODYyQTgW63hged21sU4jzwm9sQKjaZp/Yo4sDmi5
oQZcbg1/xG+8EtyhRn345GxTXNeoCYqr1qFrTujnimcTR2lqzSfNOSLlIDi/Fzww
RSxgEMZgtfrmwn78qKIldLLpN0t163agpA5vDv5YMRP+rtedpcK9e5GwcCw2OBuU
ecXYJXAvDhwkkkEaNuJCAcAeQPLhtXh+6xxr7+AMTQZk7PFIpli7FqsgGYKdWQWS
UfCMOTJMB+D6dyqyA5QlnsnepF5ADN2usRu05+uywxbjJOll1IN1twMCAwEAAaOB
pzCBpDAJBgNVHRMEAjAAMB0GA1UdJQQWMBQGCCsGAQUFBwMBBggrBgEFBQcDAjA4
BgNVHSABAf8ELjAsMAwGCisGAQQBg9AmAgEwDQYLKwYBBAGD0CYCAQEwDQYLKwYB
BAGD0CYCAQIwHQYDVR0OBBYEFBxJNPE8wGnKmPoMsqy8R4ROB4WMMB8GA1UdIwQY
MBaAFBzQcOYVg82O+whxNwAFlUxOk4JrMA0GCSqGSIb3DQEBCwUAA4ICAQAgDkI4
jQlotd67aWyl4/zMoHUNCeUvYb/ldZF8S8BD46Ebk2EbOqH6InA2TUMwUPdQC+xl
tKbPh4sYrCCz1PgTgsKlMAsn4VaQnPbqjRnzMGSCPoLq/Q2QmOI7s7UQVNiZHpHY
QDUMEcx7/QB85Q6vu9m4gKAJ7OuzKMHRYm3oFn0cQCnAcUQKQEG7MM16SxmztZY8
bgMMk3jcInBPVPc8mns5WCqmTWdiklXh3yS6m04PpswrLj4ErYCmgkzb1T+crHDw
wj2f49DWj7mQD30oLi70DfVc4hNSCZ+HUtu9yWCXWINDZLXdXWEsPyjJVj4Ct+en
/3l7Rt7gb/f9Gg/FQsJNMdBWgCDacU88bNQEORcDZSsFzhl6t2Tg31S3RCtej1HK
u+jpqJIB9l9x2tjH3grhmgAbM/03o8rAm2n3/xTMtU/k4xJ5qALmGCamQLy8rLF9
8a+5ahXhPXVLLZxUJcot03fJNbu8bqo5lC1tWQzq4y6KMf013ZzU7PDAV/tnG969
2ZnSZXVfU+6EQedbhuwFaxsqI/gcScooX33QPfckWkv6FPb3navGg0vdnziVP/tD
Qguy5t6JjTuxsBa4Y7NFU1RdDR2MIuWicZf6uBnWVhsWaJvCF0woYuBVdXMdfNJ1
LaXul3xaCapUFFr36gUrVm9By2gxQViFDm4SYQ==
-----END CERTIFICATE-----
